
bootloader.elf:     file format elf32-zpu

Disassembly of section .fixed_vectors:

00000000 <_start>:
   0:	0b          	nop
   1:	0b          	nop
   2:	0b          	nop
   3:	97          	im 23
   4:	fe          	im -2
   5:	04          	poppc
	...

00000020 <_zpu_interrupt_vector>:
  20:	0b          	nop
  21:	0b          	nop
  22:	0b          	nop
  23:	97          	im 23
  24:	df          	im -33
  25:	04          	poppc
	...

00000040 <_loadh>:
  40:	71          	loadsp 4
  41:	fd          	im -3
  42:	06          	and
  43:	08          	load
  44:	72          	loadsp 8
  45:	83          	im 3
  46:	06          	and
  47:	09          	not
  48:	81          	im 1
  49:	05          	add
  4a:	82          	im 2
  4b:	05          	add
  4c:	83          	im 3
  4d:	2b          	ashiftleft
  4e:	2a          	lshiftright
  4f:	83          	im 3
  50:	ff          	im -1
  51:	ff          	im -1
  52:	06          	and
  53:	52          	storesp 8
  54:	04          	poppc
	...

00000060 <_storeh>:
  60:	71          	loadsp 4
  61:	fd          	im -3
  62:	06          	and
  63:	08          	load
  64:	83          	im 3
  65:	ff          	im -1
  66:	ff          	im -1
  67:	73          	loadsp 12
  68:	83          	im 3
  69:	06          	and
  6a:	09          	not
  6b:	81          	im 1
  6c:	05          	add
  6d:	82          	im 2
  6e:	05          	add
  6f:	83          	im 3
  70:	2b          	ashiftleft
  71:	2b          	ashiftleft
  72:	09          	not
  73:	06          	and
  74:	73          	loadsp 12
  75:	83          	im 3
  76:	ff          	im -1
  77:	ff          	im -1
  78:	0b          	nop
  79:	0b          	nop
  7a:	0b          	nop
  7b:	0b          	nop
  7c:	83          	im 3
  7d:	a7          	im 39
  7e:	04          	poppc
	...

00000080 <_lessthan>:
  80:	72          	loadsp 8
  81:	09          	not
  82:	81          	im 1
  83:	05          	add
  84:	72          	loadsp 8
  85:	05          	add
  86:	73          	loadsp 12
  87:	73          	loadsp 12
  88:	09          	not
  89:	06          	and
  8a:	09          	not
  8b:	06          	and
  8c:	73          	loadsp 12
  8d:	09          	not
  8e:	73          	loadsp 12
  8f:	06          	and
  90:	07          	or
  91:	0a          	flip
  92:	81          	im 1
  93:	06          	and
  94:	53          	storesp 12
  95:	51          	storesp 4
  96:	04          	poppc
	...

000000a0 <_lessthanorequal>:
  a0:	72          	loadsp 8
  a1:	72          	loadsp 8
  a2:	24          	lessthan
  a3:	73          	loadsp 12
  a4:	73          	loadsp 12
  a5:	2e          	eq
  a6:	07          	or
  a7:	53          	storesp 12
  a8:	51          	storesp 4
  a9:	04          	poppc
	...

000000c0 <_ulessthan>:
  c0:	71          	loadsp 4
  c1:	73          	loadsp 12
  c2:	71          	loadsp 4
  c3:	09          	not
  c4:	71          	loadsp 4
  c5:	06          	and
  c6:	81          	im 1
  c7:	06          	and
  c8:	30          	neg
  c9:	72          	loadsp 8
  ca:	0a          	flip
  cb:	10          	addsp 0
  cc:	0a          	flip
  cd:	72          	loadsp 8
  ce:	0a          	flip
  cf:	10          	addsp 0
  d0:	0a          	flip
  d1:	31          	sub
  d2:	05          	add
  d3:	0a          	flip
  d4:	81          	im 1
  d5:	06          	and
  d6:	51          	storesp 4
  d7:	51          	storesp 4
  d8:	53          	storesp 12
  d9:	51          	storesp 4
  da:	04          	poppc
  db:	00          	breakpoint
  dc:	00          	breakpoint
  dd:	00          	breakpoint
	...

000000e0 <_ulessthanorequal>:
  e0:	72          	loadsp 8
  e1:	72          	loadsp 8
  e2:	26          	ulessthan
  e3:	73          	loadsp 12
  e4:	73          	loadsp 12
  e5:	2e          	eq
  e6:	07          	or
  e7:	53          	storesp 12
  e8:	51          	storesp 4
  e9:	04          	poppc
	...

00000100 <_swap>:
	...

00000120 <_slowmult>:
 120:	0b          	nop
 121:	0b          	nop
 122:	0b          	nop
 123:	88          	im 8
 124:	c3          	im -61
 125:	04          	poppc
	...

00000140 <_lshiftright>:
 140:	72          	loadsp 8
 141:	0a          	flip
 142:	72          	loadsp 8
 143:	2b          	ashiftleft
 144:	0a          	flip
 145:	53          	storesp 12
 146:	51          	storesp 4
 147:	04          	poppc
	...

00000160 <_ashiftleft>:
 160:	72          	loadsp 8
 161:	72          	loadsp 8
 162:	9f          	im 31
 163:	06          	and
 164:	09          	not
 165:	81          	im 1
 166:	05          	add
 167:	0b          	nop
 168:	0b          	nop
 169:	0b          	nop
 16a:	88          	im 8
 16b:	a6          	im 38
 16c:	05          	add
 16d:	04          	poppc
	...

00000180 <_ashiftright>:
 180:	72          	loadsp 8
 181:	72          	loadsp 8
 182:	2a          	lshiftright
 183:	ff          	im -1
 184:	73          	loadsp 12
 185:	9f          	im 31
 186:	06          	and
 187:	2a          	lshiftright
 188:	09          	not
 189:	74          	loadsp 16
 18a:	09          	not
 18b:	0a          	flip
 18c:	81          	im 1
 18d:	06          	and
 18e:	ff          	im -1
 18f:	05          	add
 190:	06          	and
 191:	07          	or
 192:	53          	storesp 12
 193:	51          	storesp 4
 194:	04          	poppc
	...

000001a0 <_call>:
 1a0:	71          	loadsp 4
 1a1:	71          	loadsp 4
 1a2:	53          	storesp 12
 1a3:	51          	storesp 4
 1a4:	02          	pushsp
 1a5:	0d          	popsp
 1a6:	04          	poppc

000001a7 <_storehtail>:
 1a7:	06          	and
 1a8:	73          	loadsp 12
 1a9:	83          	im 3
 1aa:	06          	and
 1ab:	09          	not
 1ac:	81          	im 1
 1ad:	05          	add
 1ae:	82          	im 2
 1af:	05          	add
 1b0:	83          	im 3
 1b1:	2b          	ashiftleft
 1b2:	0b          	nop
 1b3:	2b          	ashiftleft
 1b4:	07          	or
 1b5:	72          	loadsp 8
 1b6:	fc          	im -4
 1b7:	06          	and
 1b8:	0c          	store
 1b9:	51          	storesp 4
 1ba:	51          	storesp 4
 1bb:	04          	poppc
 1bc:	00          	breakpoint
 1bd:	00          	breakpoint
	...

000001c0 <_eq>:
 1c0:	72          	loadsp 8
 1c1:	09          	not
 1c2:	81          	im 1
 1c3:	05          	add
 1c4:	72          	loadsp 8
 1c5:	05          	add
 1c6:	09          	not
 1c7:	70          	loadsp 0
 1c8:	81          	im 1
 1c9:	05          	add
 1ca:	09          	not
 1cb:	06          	and
 1cc:	0a          	flip
 1cd:	81          	im 1
 1ce:	06          	and
 1cf:	53          	storesp 12
 1d0:	51          	storesp 4
 1d1:	04          	poppc
	...

000001e0 <_neq>:
 1e0:	72          	loadsp 8
 1e1:	09          	not
 1e2:	81          	im 1
 1e3:	05          	add
 1e4:	72          	loadsp 8
 1e5:	05          	add
 1e6:	09          	not
 1e7:	70          	loadsp 0
 1e8:	81          	im 1
 1e9:	05          	add
 1ea:	09          	not
 1eb:	06          	and
 1ec:	0a          	flip
 1ed:	09          	not
 1ee:	81          	im 1
 1ef:	06          	and
 1f0:	53          	storesp 12
 1f1:	51          	storesp 4
 1f2:	04          	poppc
	...

00000200 <_neg>:
 200:	71          	loadsp 4
 201:	09          	not
 202:	81          	im 1
 203:	05          	add
 204:	52          	storesp 8
 205:	04          	poppc
	...

00000220 <_sub>:
 220:	72          	loadsp 8
 221:	72          	loadsp 8
 222:	09          	not
 223:	81          	im 1
 224:	05          	add
 225:	05          	add
 226:	53          	storesp 12
 227:	51          	storesp 4
 228:	04          	poppc
	...

00000240 <_xor>:
 240:	72          	loadsp 8
 241:	09          	not
 242:	72          	loadsp 8
 243:	06          	and
 244:	73          	loadsp 12
 245:	73          	loadsp 12
 246:	09          	not
 247:	06          	and
 248:	07          	or
 249:	53          	storesp 12
 24a:	51          	storesp 4
 24b:	04          	poppc
	...

00000260 <_loadb>:
 260:	71          	loadsp 4
 261:	fc          	im -4
 262:	06          	and
 263:	08          	load
 264:	72          	loadsp 8
 265:	83          	im 3
 266:	06          	and
 267:	09          	not
 268:	81          	im 1
 269:	05          	add
 26a:	83          	im 3
 26b:	05          	add
 26c:	10          	addsp 0
 26d:	10          	addsp 0
 26e:	10          	addsp 0
 26f:	2a          	lshiftright
 270:	81          	im 1
 271:	ff          	im -1
 272:	06          	and
 273:	52          	storesp 8
 274:	04          	poppc
	...

00000280 <_storeb>:
 280:	71          	loadsp 4
 281:	fc          	im -4
 282:	06          	and
 283:	08          	load
 284:	0b          	nop
 285:	0b          	nop
 286:	0b          	nop
 287:	9d          	im 29
 288:	dc          	im -36
 289:	73          	loadsp 12
 28a:	83          	im 3
 28b:	06          	and
 28c:	10          	addsp 0
 28d:	10          	addsp 0
 28e:	05          	add
 28f:	08          	load
 290:	06          	and
 291:	0b          	nop
 292:	0b          	nop
 293:	0b          	nop
 294:	88          	im 8
 295:	a9          	im 41
 296:	04          	poppc
	...

000002a0 <_div>:
 2a0:	0b          	nop
 2a1:	0b          	nop
 2a2:	0b          	nop
 2a3:	88          	im 8
 2a4:	f7          	im -9
 2a5:	04          	poppc
	...

000002c0 <_mod>:
 2c0:	0b          	nop
 2c1:	0b          	nop
 2c2:	0b          	nop
 2c3:	88          	im 8
 2c4:	df          	im -33
 2c5:	04          	poppc
	...

000002e0 <_eqbranch>:
 2e0:	72          	loadsp 8
 2e1:	09          	not
 2e2:	70          	loadsp 0
 2e3:	81          	im 1
 2e4:	05          	add
 2e5:	09          	not
 2e6:	06          	and
 2e7:	0a          	flip
 2e8:	81          	im 1
 2e9:	06          	and
 2ea:	ff          	im -1
 2eb:	05          	add
 2ec:	70          	loadsp 0
 2ed:	54          	storesp 16
 2ee:	71          	loadsp 4
 2ef:	06          	and
 2f0:	73          	loadsp 12
 2f1:	09          	not
 2f2:	72          	loadsp 8
 2f3:	74          	loadsp 16
 2f4:	05          	add
 2f5:	ff          	im -1
 2f6:	05          	add
 2f7:	06          	and
 2f8:	07          	or
 2f9:	51          	storesp 4
 2fa:	51          	storesp 4
 2fb:	51          	storesp 4
 2fc:	04          	poppc
 2fd:	00          	breakpoint
	...

00000300 <_neqbranch>:
 300:	72          	loadsp 8
 301:	09          	not
 302:	70          	loadsp 0
 303:	81          	im 1
 304:	05          	add
 305:	09          	not
 306:	06          	and
 307:	0a          	flip
 308:	09          	not
 309:	81          	im 1
 30a:	06          	and
 30b:	ff          	im -1
 30c:	05          	add
 30d:	70          	loadsp 0
 30e:	54          	storesp 16
 30f:	71          	loadsp 4
 310:	06          	and
 311:	73          	loadsp 12
 312:	09          	not
 313:	72          	loadsp 8
 314:	74          	loadsp 16
 315:	05          	add
 316:	ff          	im -1
 317:	05          	add
 318:	06          	and
 319:	07          	or
 31a:	51          	storesp 4
 31b:	51          	storesp 4
 31c:	51          	storesp 4
 31d:	04          	poppc
	...

00000320 <_poppcrel>:
 320:	05          	add
 321:	ff          	im -1
 322:	05          	add
 323:	04          	poppc
	...

00000340 <_config>:
 340:	81          	im 1
 341:	0b          	nop
 342:	0b          	nop
 343:	0b          	nop
 344:	0b          	nop
 345:	9e          	im 30
 346:	a4          	im 36
 347:	0c          	store
 348:	51          	storesp 4
 349:	04          	poppc
	...

00000360 <_pushpc>:
 360:	71          	loadsp 4
 361:	81          	im 1
 362:	05          	add
 363:	52          	storesp 8
 364:	04          	poppc
	...

00000380 <_syscall_emulate>:
	...

000003a0 <_pushspadd>:
 3a0:	02          	pushsp
 3a1:	84          	im 4
 3a2:	05          	add
 3a3:	72          	loadsp 8
 3a4:	10          	addsp 0
 3a5:	10          	addsp 0
 3a6:	05          	add
 3a7:	52          	storesp 8
 3a8:	04          	poppc
	...

000003c0 <_halfmult>:
	...

000003e0 <_callpcrel>:
 3e0:	71          	loadsp 4
 3e1:	71          	loadsp 4
 3e2:	05          	add
 3e3:	ff          	im -1
 3e4:	05          	add
 3e5:	71          	loadsp 4
 3e6:	53          	storesp 12
 3e7:	51          	storesp 4
 3e8:	02          	pushsp
 3e9:	0d          	popsp
 3ea:	04          	poppc
	...
Disassembly of section .init:

00000400 <_init>:
 400:	81          	im 1
 401:	d4          	im -44
 402:	3f          	callpcrel
 403:	95          	im 21
 404:	ab          	im 43
 405:	3f          	callpcrel
 406:	04          	poppc
Disassembly of section .text:

00000407 <_ashiftleftBegin>:
 407:	10          	addsp 0
 408:	10          	addsp 0
 409:	10          	addsp 0
 40a:	10          	addsp 0
 40b:	10          	addsp 0
 40c:	10          	addsp 0
 40d:	10          	addsp 0
 40e:	10          	addsp 0
 40f:	10          	addsp 0
 410:	10          	addsp 0
 411:	10          	addsp 0
 412:	10          	addsp 0
 413:	10          	addsp 0
 414:	10          	addsp 0
 415:	10          	addsp 0
 416:	10          	addsp 0
 417:	10          	addsp 0
 418:	10          	addsp 0
 419:	10          	addsp 0
 41a:	10          	addsp 0
 41b:	10          	addsp 0
 41c:	10          	addsp 0
 41d:	10          	addsp 0
 41e:	10          	addsp 0
 41f:	10          	addsp 0
 420:	10          	addsp 0
 421:	10          	addsp 0
 422:	10          	addsp 0
 423:	10          	addsp 0
 424:	10          	addsp 0
 425:	10          	addsp 0

00000426 <_ashiftleftEnd>:
 426:	53          	storesp 12
 427:	51          	storesp 4
 428:	04          	poppc

00000429 <_storebtail>:
 429:	73          	loadsp 12
 42a:	81          	im 1
 42b:	ff          	im -1
 42c:	06          	and
 42d:	73          	loadsp 12
 42e:	83          	im 3
 42f:	06          	and
 430:	09          	not
 431:	81          	im 1
 432:	05          	add
 433:	83          	im 3
 434:	05          	add
 435:	10          	addsp 0
 436:	10          	addsp 0
 437:	10          	addsp 0
 438:	2b          	ashiftleft
 439:	07          	or
 43a:	72          	loadsp 8
 43b:	fc          	im -4
 43c:	06          	and
 43d:	0c          	store
 43e:	51          	storesp 4
 43f:	51          	storesp 4
 440:	04          	poppc

00000441 <_syscall>:
 441:	3c          	syscall
 442:	04          	poppc

00000443 <_slowmultImpl>:
 443:	72          	loadsp 8
 444:	72          	loadsp 8
 445:	80          	im 0
 446:	72          	loadsp 8
 447:	81          	im 1
 448:	06          	and
 449:	ff          	im -1
 44a:	05          	add
 44b:	09          	not
 44c:	72          	loadsp 8
 44d:	06          	and
 44e:	05          	add
 44f:	71          	loadsp 4
 450:	10          	addsp 0
 451:	52          	storesp 8
 452:	72          	loadsp 8
 453:	0a          	flip
 454:	10          	addsp 0
 455:	0a          	flip
 456:	53          	storesp 12
 457:	72          	loadsp 8
 458:	ed          	im -19
 459:	38          	neqbranch
 45a:	51          	storesp 4
 45b:	51          	storesp 4
 45c:	53          	storesp 12
 45d:	51          	storesp 4
 45e:	04          	poppc

0000045f <___mod>:
 45f:	88          	im 8
 460:	08          	load
 461:	8c          	im 12
 462:	08          	load
 463:	90          	im 16
 464:	08          	load
 465:	75          	loadsp 20
 466:	75          	loadsp 20
 467:	98          	im 24
 468:	de          	im -34
 469:	2d          	call
 46a:	50          	storesp 0
 46b:	50          	storesp 0
 46c:	88          	im 8
 46d:	08          	load
 46e:	56          	storesp 24
 46f:	90          	im 16
 470:	0c          	store
 471:	8c          	im 12
 472:	0c          	store
 473:	88          	im 8
 474:	0c          	store
 475:	51          	storesp 4
 476:	04          	poppc

00000477 <___div>:
 477:	88          	im 8
 478:	08          	load
 479:	8c          	im 12
 47a:	08          	load
 47b:	90          	im 16
 47c:	08          	load
 47d:	75          	loadsp 20
 47e:	75          	loadsp 20
 47f:	98          	im 24
 480:	9a          	im 26
 481:	2d          	call
 482:	50          	storesp 0
 483:	50          	storesp 0
 484:	88          	im 8
 485:	08          	load
 486:	56          	storesp 24
 487:	90          	im 16
 488:	0c          	store
 489:	8c          	im 12
 48a:	0c          	store
 48b:	88          	im 8
 48c:	0c          	store
 48d:	51          	storesp 4
 48e:	04          	poppc
 48f:	88          	im 8
 490:	08          	load
 491:	8c          	im 12
 492:	08          	load
 493:	90          	im 16
 494:	08          	load
 495:	8e          	im 14
 496:	90          	im 16
 497:	2d          	call
 498:	90          	im 16
 499:	0c          	store
 49a:	8c          	im 12
 49b:	0c          	store
 49c:	88          	im 8
 49d:	0c          	store
 49e:	04          	poppc

0000049f <__do_global_dtors_aux>:
 49f:	ff          	im -1
 4a0:	3d          	pushspadd
 4a1:	0d          	popsp
 4a2:	0b          	nop
 4a3:	0b          	nop
 4a4:	0b          	nop
 4a5:	9e          	im 30
 4a6:	b4          	im 52
 4a7:	33          	loadb
 4a8:	51          	storesp 4
 4a9:	70          	loadsp 0
 4aa:	a6          	im 38
 4ab:	38          	neqbranch
 4ac:	9e          	im 30
 4ad:	b0          	im 48
 4ae:	08          	load
 4af:	70          	loadsp 0
 4b0:	08          	load
 4b1:	52          	storesp 8
 4b2:	52          	storesp 8
 4b3:	70          	loadsp 0
 4b4:	80          	im 0
 4b5:	2e          	eq
 4b6:	92          	im 18
 4b7:	38          	neqbranch

000004b8 <.L10>:
 4b8:	84          	im 4
 4b9:	12          	addsp 8
 4ba:	9e          	im 30
 4bb:	b0          	im 48
 4bc:	0c          	store
 4bd:	70          	loadsp 0
 4be:	2d          	call
 4bf:	9e          	im 30
 4c0:	b0          	im 48
 4c1:	08          	load
 4c2:	70          	loadsp 0
 4c3:	08          	load
 4c4:	52          	storesp 8
 4c5:	52          	storesp 8
 4c6:	70          	loadsp 0
 4c7:	f0          	im -16
 4c8:	38          	neqbranch

000004c9 <.L7>:
 4c9:	81          	im 1
 4ca:	0b          	nop
 4cb:	0b          	nop
 4cc:	0b          	nop
 4cd:	0b          	nop
 4ce:	9e          	im 30
 4cf:	b4          	im 52
 4d0:	34          	storeb

000004d1 <.L1>:
 4d1:	83          	im 3
 4d2:	3d          	pushspadd
 4d3:	0d          	popsp
 4d4:	04          	poppc

000004d5 <call___do_global_dtors_aux>:
 4d5:	04          	poppc

000004d6 <frame_dummy>:
 4d6:	80          	im 0
 4d7:	3d          	pushspadd
 4d8:	0d          	popsp
 4d9:	0b          	nop
 4da:	0b          	nop
 4db:	0b          	nop
 4dc:	9e          	im 30
 4dd:	d8          	im -40
 4de:	08          	load
 4df:	80          	im 0
 4e0:	2e          	eq
 4e1:	8e          	im 14
 4e2:	38          	neqbranch
 4e3:	0b          	nop
 4e4:	0b          	nop
 4e5:	0b          	nop
 4e6:	0b          	nop
 4e7:	80          	im 0
 4e8:	0b          	nop
 4e9:	80          	im 0
 4ea:	2e          	eq
 4eb:	09          	not
 4ec:	81          	im 1
 4ed:	06          	and
 4ee:	85          	im 5
 4ef:	38          	neqbranch

000004f0 <.L12>:
 4f0:	82          	im 2
 4f1:	3d          	pushspadd
 4f2:	0d          	popsp
 4f3:	04          	poppc

000004f4 <.L15>:
 4f4:	0b          	nop
 4f5:	0b          	nop
 4f6:	0b          	nop
 4f7:	9e          	im 30
 4f8:	d8          	im -40
 4f9:	51          	storesp 4
 4fa:	0b          	nop
 4fb:	0b          	nop
 4fc:	0b          	nop
 4fd:	f6          	im -10
 4fe:	81          	im 1
 4ff:	3f          	callpcrel
 500:	82          	im 2
 501:	3d          	pushspadd
 502:	0d          	popsp
 503:	04          	poppc

00000504 <call_frame_dummy>:
 504:	04          	poppc

00000505 <_Z5flushv>:
 505:	ff          	im -1
 506:	3d          	pushspadd
 507:	0d          	popsp
 508:	80          	im 0
 509:	c4          	im -60
 50a:	80          	im 0
 50b:	80          	im 0
 50c:	84          	im 4
 50d:	52          	storesp 8

0000050e <.L2>:
 50e:	71          	loadsp 4
 50f:	08          	load
 510:	70          	loadsp 0
 511:	82          	im 2
 512:	2a          	lshiftright
 513:	70          	loadsp 0
 514:	81          	im 1
 515:	06          	and
 516:	51          	storesp 4
 517:	51          	storesp 4
 518:	51          	storesp 4
 519:	70          	loadsp 0
 51a:	f3          	im -13
 51b:	38          	neqbranch
 51c:	83          	im 3
 51d:	3d          	pushspadd
 51e:	0d          	popsp
 51f:	04          	poppc

00000520 <_Z7outbytei>:
 520:	ff          	im -1
 521:	3d          	pushspadd
 522:	0d          	popsp
 523:	80          	im 0
 524:	c4          	im -60
 525:	80          	im 0
 526:	80          	im 0
 527:	84          	im 4
 528:	52          	storesp 8

00000529 <.L7>:
 529:	71          	loadsp 4
 52a:	08          	load
 52b:	70          	loadsp 0
 52c:	81          	im 1
 52d:	2a          	lshiftright
 52e:	70          	loadsp 0
 52f:	81          	im 1
 530:	06          	and
 531:	51          	storesp 4
 532:	51          	storesp 4
 533:	51          	storesp 4
 534:	70          	loadsp 0
 535:	f3          	im -13
 536:	38          	neqbranch
 537:	73          	loadsp 12
 538:	82          	im 2
 539:	90          	im 16
 53a:	0a          	flip
 53b:	0c          	store
 53c:	83          	im 3
 53d:	3d          	pushspadd
 53e:	0d          	popsp
 53f:	04          	poppc

00000540 <_Z8sendBytej>:
 540:	fe          	im -2
 541:	3d          	pushspadd
 542:	0d          	popsp
 543:	74          	loadsp 16
 544:	70          	loadsp 0
 545:	80          	im 0
 546:	dc          	im -36
 547:	80          	im 0
 548:	80          	im 0
 549:	88          	im 8
 54a:	0c          	store
 54b:	70          	loadsp 0
 54c:	81          	im 1
 54d:	ff          	im -1
 54e:	06          	and
 54f:	ff          	im -1
 550:	83          	im 3
 551:	11          	addsp 4
 552:	54          	storesp 16
 553:	51          	storesp 4
 554:	53          	storesp 12
 555:	71          	loadsp 4
 556:	81          	im 1
 557:	26          	ulessthan
 558:	92          	im 18
 559:	38          	neqbranch
 55a:	80          	im 0
 55b:	fd          	im -3
 55c:	51          	storesp 4
 55d:	8a          	im 10
 55e:	a0          	im 32
 55f:	2d          	call
 560:	72          	loadsp 8
 561:	a0          	im 32
 562:	32          	xor
 563:	51          	storesp 4
 564:	8a          	im 10
 565:	a0          	im 32
 566:	2d          	call
 567:	84          	im 4
 568:	3d          	pushspadd
 569:	0d          	popsp
 56a:	04          	poppc

0000056b <.L28>:
 56b:	72          	loadsp 8
 56c:	51          	storesp 4
 56d:	8a          	im 10
 56e:	a0          	im 32
 56f:	2d          	call
 570:	84          	im 4
 571:	3d          	pushspadd
 572:	0d          	popsp
 573:	04          	poppc

00000574 <_Z11prepareSendv>:
 574:	80          	im 0
 575:	3d          	pushspadd
 576:	0d          	popsp
 577:	83          	im 3
 578:	ff          	im -1
 579:	ff          	im -1
 57a:	0b          	nop
 57b:	83          	im 3
 57c:	d0          	im -48
 57d:	0a          	flip
 57e:	0c          	store
 57f:	80          	im 0
 580:	fe          	im -2
 581:	51          	storesp 4
 582:	8a          	im 10
 583:	a0          	im 32
 584:	2d          	call
 585:	82          	im 2
 586:	3d          	pushspadd
 587:	0d          	popsp
 588:	04          	poppc

00000589 <_Z10finishSendv>:
 589:	ff          	im -1
 58a:	3d          	pushspadd
 58b:	0d          	popsp
 58c:	83          	im 3
 58d:	d0          	im -48
 58e:	0a          	flip
 58f:	08          	load
 590:	70          	loadsp 0
 591:	88          	im 8
 592:	2a          	lshiftright
 593:	52          	storesp 8
 594:	52          	storesp 8
 595:	8a          	im 10
 596:	c0          	im -64
 597:	2d          	call
 598:	71          	loadsp 4
 599:	81          	im 1
 59a:	ff          	im -1
 59b:	06          	and
 59c:	51          	storesp 4
 59d:	8a          	im 10
 59e:	c0          	im -64
 59f:	2d          	call
 5a0:	80          	im 0
 5a1:	fe          	im -2
 5a2:	51          	storesp 4
 5a3:	8a          	im 10
 5a4:	a0          	im 32
 5a5:	2d          	call
 5a6:	83          	im 3
 5a7:	3d          	pushspadd
 5a8:	0d          	popsp
 5a9:	04          	poppc

000005aa <_Z6inbytev>:
 5aa:	fe          	im -2
 5ab:	3d          	pushspadd
 5ac:	0d          	popsp
 5ad:	80          	im 0
 5ae:	c4          	im -60
 5af:	80          	im 0
 5b0:	80          	im 0
 5b1:	84          	im 4
 5b2:	53          	storesp 12

000005b3 <.L43>:
 5b3:	72          	loadsp 8
 5b4:	08          	load
 5b5:	70          	loadsp 0
 5b6:	81          	im 1
 5b7:	06          	and
 5b8:	51          	storesp 4
 5b9:	51          	storesp 4
 5ba:	70          	loadsp 0
 5bb:	9f          	im 31
 5bc:	38          	neqbranch
 5bd:	9e          	im 30
 5be:	c0          	im -64
 5bf:	08          	load
 5c0:	52          	storesp 8
 5c1:	71          	loadsp 4
 5c2:	f0          	im -16
 5c3:	38          	neqbranch
 5c4:	9e          	im 30
 5c5:	bc          	im 60
 5c6:	08          	load
 5c7:	51          	storesp 4
 5c8:	87          	im 7
 5c9:	e8          	im -24
 5ca:	71          	loadsp 4
 5cb:	27          	ulessthanorequal
 5cc:	e6          	im -26
 5cd:	38          	neqbranch
 5ce:	71          	loadsp 4
 5cf:	80          	im 0
 5d0:	d0          	im -48
 5d1:	0a          	flip
 5d2:	0c          	store
 5d3:	71          	loadsp 4
 5d4:	83          	im 3
 5d5:	90          	im 16
 5d6:	0a          	flip
 5d7:	0c          	store
 5d8:	98          	im 24
 5d9:	8c          	im 12
 5da:	2d          	call

000005db <.L39>:
 5db:	82          	im 2
 5dc:	90          	im 16
 5dd:	0a          	flip
 5de:	08          	load
 5df:	88          	im 8
 5e0:	0c          	store
 5e1:	84          	im 4
 5e2:	3d          	pushspadd
 5e3:	0d          	popsp
 5e4:	04          	poppc

000005e5 <_Z11enableTimerv>:
 5e5:	82          	im 2
 5e6:	f6          	im -10
 5e7:	ff          	im -1
 5e8:	0b          	nop
 5e9:	80          	im 0
 5ea:	cc          	im -52
 5eb:	80          	im 0
 5ec:	80          	im 0
 5ed:	88          	im 8
 5ee:	0c          	store
 5ef:	80          	im 0
 5f0:	0b          	nop
 5f1:	80          	im 0
 5f2:	cc          	im -52
 5f3:	80          	im 0
 5f4:	80          	im 0
 5f5:	84          	im 4
 5f6:	0c          	store
 5f7:	9f          	im 31
 5f8:	0b          	nop
 5f9:	83          	im 3
 5fa:	90          	im 16
 5fb:	0a          	flip
 5fc:	0c          	store
 5fd:	04          	poppc

000005fe <_Z11spi_disablePVj>:
 5fe:	ff          	im -1
 5ff:	3d          	pushspadd
 600:	0d          	popsp
 601:	73          	loadsp 12
 602:	70          	loadsp 0
 603:	08          	load
 604:	51          	storesp 4
 605:	51          	storesp 4
 606:	80          	im 0
 607:	c8          	im -56
 608:	80          	im 0
 609:	80          	im 0
 60a:	84          	im 4
 60b:	70          	loadsp 0
 60c:	08          	load
 60d:	70          	loadsp 0
 60e:	84          	im 4
 60f:	80          	im 0
 610:	80          	im 0
 611:	07          	or
 612:	72          	loadsp 8
 613:	0c          	store
 614:	52          	storesp 8
 615:	52          	storesp 8
 616:	83          	im 3
 617:	3d          	pushspadd
 618:	0d          	popsp
 619:	04          	poppc

0000061a <_Z10spi_enablev>:
 61a:	ff          	im -1
 61b:	3d          	pushspadd
 61c:	0d          	popsp
 61d:	80          	im 0
 61e:	c8          	im -56
 61f:	80          	im 0
 620:	80          	im 0
 621:	84          	im 4
 622:	70          	loadsp 0
 623:	08          	load
 624:	70          	loadsp 0
 625:	fb          	im -5
 626:	ff          	im -1
 627:	ff          	im -1
 628:	06          	and
 629:	72          	loadsp 8
 62a:	0c          	store
 62b:	52          	storesp 8
 62c:	52          	storesp 8
 62d:	83          	im 3
 62e:	3d          	pushspadd
 62f:	0d          	popsp
 630:	04          	poppc

00000631 <start>:
 631:	a0          	im 32
 632:	90          	im 16
 633:	0b          	nop
 634:	a0          	im 32
 635:	80          	im 0
 636:	0c          	store
 637:	9e          	im 30
 638:	b8          	im 56
 639:	0b          	nop
 63a:	a0          	im 32
 63b:	84          	im 4
 63c:	0c          	store
 63d:	98          	im 24
 63e:	93          	im 19
 63f:	2d          	call

00000640 <_Z15start_read_sizePVj>:
 640:	ff          	im -1
 641:	3d          	pushspadd
 642:	0d          	popsp
 643:	73          	loadsp 12
 644:	51          	storesp 4
 645:	8b          	im 11
 646:	71          	loadsp 4
 647:	0c          	store
 648:	90          	im 16
 649:	11          	addsp 4
 64a:	52          	storesp 8
 64b:	90          	im 16
 64c:	c0          	im -64
 64d:	80          	im 0
 64e:	72          	loadsp 8
 64f:	0c          	store
 650:	80          	im 0
 651:	72          	loadsp 8
 652:	0c          	store
 653:	70          	loadsp 0
 654:	08          	load
 655:	83          	im 3
 656:	ff          	im -1
 657:	ff          	im -1
 658:	06          	and
 659:	88          	im 8
 65a:	0c          	store
 65b:	83          	im 3
 65c:	3d          	pushspadd
 65d:	0d          	popsp
 65e:	04          	poppc

0000065f <spi_copy_impl>:
 65f:	f8          	im -8
 660:	3d          	pushspadd
 661:	0d          	popsp
 662:	a0          	im 32
 663:	80          	im 0
 664:	56          	storesp 24
 665:	80          	im 0
 666:	c0          	im -64
 667:	80          	im 0
 668:	80          	im 0
 669:	84          	im 4
 66a:	54          	storesp 16
 66b:	83          	im 3
 66c:	d0          	im -48
 66d:	0a          	flip
 66e:	57          	storesp 28
 66f:	8c          	im 12
 670:	9a          	im 26
 671:	2d          	call
 672:	73          	loadsp 12
 673:	51          	storesp 4
 674:	8c          	im 12
 675:	c0          	im -64
 676:	2d          	call
 677:	88          	im 8
 678:	08          	load
 679:	10          	addsp 0
 67a:	10          	addsp 0
 67b:	90          	im 16
 67c:	c0          	im -64
 67d:	84          	im 4
 67e:	05          	add
 67f:	9e          	im 30
 680:	b8          	im 56
 681:	0c          	store
 682:	80          	im 0
 683:	70          	loadsp 0
 684:	75          	loadsp 20
 685:	0c          	store
 686:	74          	loadsp 16
 687:	0c          	store
 688:	73          	loadsp 12
 689:	08          	load
 68a:	83          	im 3
 68b:	ff          	im -1
 68c:	ff          	im -1
 68d:	06          	and
 68e:	59          	storesp 36
 68f:	88          	im 8
 690:	08          	load
 691:	80          	im 0
 692:	df          	im -33
 693:	80          	im 0
 694:	26          	ulessthan
 695:	80          	im 0
 696:	db          	im -37
 697:	38          	neqbranch
 698:	83          	im 3
 699:	ff          	im -1
 69a:	ff          	im -1
 69b:	77          	loadsp 28
 69c:	0c          	store
 69d:	88          	im 8
 69e:	08          	load
 69f:	ff          	im -1
 6a0:	05          	add
 6a1:	55          	storesp 20
 6a2:	74          	loadsp 16
 6a3:	ff          	im -1
 6a4:	2e          	eq
 6a5:	a7          	im 39
 6a6:	38          	neqbranch
 6a7:	80          	im 0
 6a8:	58          	storesp 32

000006a9 <.L94>:
 6a9:	84          	im 4
 6aa:	53          	storesp 12

000006ab <.L91>:
 6ab:	77          	loadsp 28
 6ac:	74          	loadsp 16
 6ad:	0c          	store
 6ae:	73          	loadsp 12
 6af:	08          	load
 6b0:	88          	im 8
 6b1:	18          	addsp 32
 6b2:	0c          	store
 6b3:	ff          	im -1
 6b4:	13          	addsp 12
 6b5:	53          	storesp 12
 6b6:	72          	loadsp 8
 6b7:	f3          	im -13
 6b8:	38          	neqbranch
 6b9:	75          	loadsp 20
 6ba:	84          	im 4
 6bb:	17          	addsp 28
 6bc:	75          	loadsp 20
 6bd:	08          	load
 6be:	72          	loadsp 8
 6bf:	0c          	store
 6c0:	ff          	im -1
 6c1:	17          	addsp 28
 6c2:	57          	storesp 28
 6c3:	57          	storesp 28
 6c4:	53          	storesp 12
 6c5:	74          	loadsp 16
 6c6:	ff          	im -1
 6c7:	2e          	eq
 6c8:	09          	not
 6c9:	81          	im 1
 6ca:	06          	and
 6cb:	dd          	im -35
 6cc:	38          	neqbranch

000006cd <.L104>:
 6cd:	73          	loadsp 12
 6ce:	51          	storesp 4
 6cf:	8b          	im 11
 6d0:	fe          	im -2
 6d1:	2d          	call
 6d2:	76          	loadsp 24
 6d3:	08          	load
 6d4:	52          	storesp 8
 6d5:	71          	loadsp 4
 6d6:	79          	loadsp 36
 6d7:	2e          	eq
 6d8:	09          	not
 6d9:	81          	im 1
 6da:	06          	and
 6db:	98          	im 24
 6dc:	38          	neqbranch
 6dd:	a0          	im 32
 6de:	84          	im 4
 6df:	08          	load
 6e0:	52          	storesp 8
 6e1:	71          	loadsp 4
 6e2:	fa          	im -6
 6e3:	a0          	im 32
 6e4:	88          	im 8
 6e5:	9c          	im 28
 6e6:	80          	im 0
 6e7:	2e          	eq
 6e8:	93          	im 19
 6e9:	38          	neqbranch
 6ea:	80          	im 0
 6eb:	c2          	im -62
 6ec:	51          	storesp 4
 6ed:	8a          	im 10
 6ee:	a0          	im 32
 6ef:	2d          	call

000006f0 <.L99>:
 6f0:	ff          	im -1
 6f1:	39          	poppcrel

000006f2 <.L80>:
 6f2:	ff          	im -1
 6f3:	39          	poppcrel

000006f4 <.L108>:
 6f4:	80          	im 0
 6f5:	c3          	im -61
 6f6:	51          	storesp 4
 6f7:	8a          	im 10
 6f8:	a0          	im 32
 6f9:	2d          	call

000006fa <.L96>:
 6fa:	ff          	im -1
 6fb:	39          	poppcrel

000006fc <.L98>:
 6fc:	90          	im 16
 6fd:	0a          	flip
 6fe:	70          	loadsp 0
 6ff:	08          	load
 700:	70          	loadsp 0
 701:	ff          	im -1
 702:	bf          	im 63
 703:	06          	and
 704:	72          	loadsp 8
 705:	0c          	store
 706:	53          	storesp 12
 707:	53          	storesp 12
 708:	8a          	im 10
 709:	85          	im 5
 70a:	2d          	call
 70b:	8c          	im 12
 70c:	b1          	im 49
 70d:	2d          	call

0000070e <.L101>:
 70e:	ff          	im -1
 70f:	39          	poppcrel

00000710 <_zpu_interrupt>:
 710:	ff          	im -1
 711:	3d          	pushspadd
 712:	0d          	popsp
 713:	9e          	im 30
 714:	bc          	im 60
 715:	08          	load
 716:	81          	im 1
 717:	11          	addsp 4
 718:	9e          	im 30
 719:	bc          	im 60
 71a:	0c          	store
 71b:	51          	storesp 4
 71c:	83          	im 3
 71d:	90          	im 16
 71e:	0a          	flip
 71f:	70          	loadsp 0
 720:	08          	load
 721:	70          	loadsp 0
 722:	fe          	im -2
 723:	ff          	im -1
 724:	06          	and
 725:	72          	loadsp 8
 726:	0c          	store
 727:	52          	storesp 8
 728:	52          	storesp 8
 729:	83          	im 3
 72a:	3d          	pushspadd
 72b:	0d          	popsp
 72c:	04          	poppc

0000072d <_Z11simpleReplyj>:
 72d:	80          	im 0
 72e:	3d          	pushspadd
 72f:	0d          	popsp
 730:	8a          	im 10
 731:	f4          	im -12
 732:	2d          	call
 733:	72          	loadsp 8
 734:	81          	im 1
 735:	80          	im 0
 736:	07          	or
 737:	51          	storesp 4
 738:	8a          	im 10
 739:	c0          	im -64
 73a:	2d          	call
 73b:	8b          	im 11
 73c:	89          	im 9
 73d:	2d          	call
 73e:	82          	im 2
 73f:	3d          	pushspadd
 740:	0d          	popsp
 741:	04          	poppc

00000742 <_Z15spi_read_statusv>:
 742:	fe          	im -2
 743:	3d          	pushspadd
 744:	0d          	popsp
 745:	80          	im 0
 746:	c0          	im -64
 747:	80          	im 0
 748:	80          	im 0
 749:	84          	im 4
 74a:	53          	storesp 12
 74b:	8c          	im 12
 74c:	9a          	im 26
 74d:	2d          	call
 74e:	85          	im 5
 74f:	73          	loadsp 12
 750:	0c          	store
 751:	80          	im 0
 752:	73          	loadsp 12
 753:	0c          	store
 754:	72          	loadsp 8
 755:	08          	load
 756:	70          	loadsp 0
 757:	81          	im 1
 758:	ff          	im -1
 759:	06          	and
 75a:	74          	loadsp 16
 75b:	53          	storesp 12
 75c:	51          	storesp 4
 75d:	52          	storesp 8
 75e:	8b          	im 11
 75f:	fe          	im -2
 760:	2d          	call
 761:	71          	loadsp 4
 762:	88          	im 8
 763:	0c          	store
 764:	84          	im 4
 765:	3d          	pushspadd
 766:	0d          	popsp
 767:	04          	poppc

00000768 <_Z11cmd_progmemPh>:
 768:	fc          	im -4
 769:	3d          	pushspadd
 76a:	0d          	popsp
 76b:	76          	loadsp 24
 76c:	81          	im 1
 76d:	11          	addsp 4
 76e:	33          	loadb
 76f:	82          	im 2
 770:	12          	addsp 8
 771:	33          	loadb
 772:	71          	loadsp 4
 773:	81          	im 1
 774:	80          	im 0
 775:	0a          	flip
 776:	29          	mult
 777:	71          	loadsp 4
 778:	84          	im 4
 779:	80          	im 0
 77a:	80          	im 0
 77b:	29          	mult
 77c:	05          	add
 77d:	83          	im 3
 77e:	14          	addsp 16
 77f:	33          	loadb
 780:	70          	loadsp 0
 781:	82          	im 2
 782:	80          	im 0
 783:	29          	mult
 784:	12          	addsp 8
 785:	84          	im 4
 786:	16          	addsp 24
 787:	33          	loadb
 788:	52          	storesp 8
 789:	71          	loadsp 4
 78a:	05          	add
 78b:	a0          	im 32
 78c:	80          	im 0
 78d:	05          	add
 78e:	86          	im 6
 78f:	16          	addsp 24
 790:	85          	im 5
 791:	17          	addsp 28
 792:	33          	loadb
 793:	ff          	im -1
 794:	11          	addsp 4
 795:	51          	storesp 4
 796:	57          	storesp 28
 797:	52          	storesp 8
 798:	53          	storesp 12
 799:	53          	storesp 12
 79a:	55          	storesp 20
 79b:	57          	storesp 28
 79c:	55          	storesp 20
 79d:	53          	storesp 12
 79e:	72          	loadsp 8
 79f:	ff          	im -1
 7a0:	2e          	eq
 7a1:	9a          	im 26
 7a2:	38          	neqbranch

000007a3 <.L131>:
 7a3:	73          	loadsp 12
 7a4:	70          	loadsp 0
 7a5:	81          	im 1
 7a6:	05          	add
 7a7:	55          	storesp 20
 7a8:	33          	loadb
 7a9:	52          	storesp 8
 7aa:	71          	loadsp 4
 7ab:	75          	loadsp 20
 7ac:	70          	loadsp 0
 7ad:	81          	im 1
 7ae:	05          	add
 7af:	57          	storesp 28
 7b0:	34          	storeb
 7b1:	ff          	im -1
 7b2:	13          	addsp 12
 7b3:	53          	storesp 12
 7b4:	72          	loadsp 8
 7b5:	ff          	im -1
 7b6:	2e          	eq
 7b7:	09          	not
 7b8:	81          	im 1
 7b9:	06          	and
 7ba:	e8          	im -24
 7bb:	38          	neqbranch

000007bc <.L128>:
 7bc:	89          	im 9
 7bd:	51          	storesp 4
 7be:	8e          	im 14
 7bf:	ad          	im 45
 7c0:	2d          	call
 7c1:	86          	im 6
 7c2:	3d          	pushspadd
 7c3:	0d          	popsp
 7c4:	04          	poppc

000007c5 <_Z20cmd_raw_send_receivePh>:
 7c5:	f9          	im -7
 7c6:	3d          	pushspadd
 7c7:	0d          	popsp
 7c8:	79          	loadsp 36
 7c9:	57          	storesp 28
 7ca:	80          	im 0
 7cb:	c0          	im -64
 7cc:	80          	im 0
 7cd:	80          	im 0
 7ce:	84          	im 4
 7cf:	56          	storesp 24
 7d0:	8c          	im 12
 7d1:	9a          	im 26
 7d2:	2d          	call
 7d3:	81          	im 1
 7d4:	17          	addsp 28
 7d5:	33          	loadb
 7d6:	82          	im 2
 7d7:	18          	addsp 32
 7d8:	33          	loadb
 7d9:	71          	loadsp 4
 7da:	82          	im 2
 7db:	80          	im 0
 7dc:	29          	mult
 7dd:	05          	add
 7de:	53          	storesp 12
 7df:	53          	storesp 12
 7e0:	71          	loadsp 4
 7e1:	80          	im 0
 7e2:	2e          	eq
 7e3:	94          	im 20
 7e4:	38          	neqbranch
 7e5:	85          	im 5
 7e6:	17          	addsp 28
 7e7:	72          	loadsp 8
 7e8:	55          	storesp 20
 7e9:	53          	storesp 12

000007ea <.L138>:
 7ea:	72          	loadsp 8
 7eb:	70          	loadsp 0
 7ec:	81          	im 1
 7ed:	05          	add
 7ee:	54          	storesp 16
 7ef:	33          	loadb
 7f0:	76          	loadsp 24
 7f1:	0c          	store
 7f2:	ff          	im -1
 7f3:	14          	addsp 16
 7f4:	54          	storesp 16
 7f5:	73          	loadsp 12
 7f6:	f3          	im -13
 7f7:	38          	neqbranch

000007f8 <.L152>:
 7f8:	83          	im 3
 7f9:	17          	addsp 28
 7fa:	33          	loadb
 7fb:	84          	im 4
 7fc:	18          	addsp 32
 7fd:	33          	loadb
 7fe:	71          	loadsp 4
 7ff:	82          	im 2
 800:	80          	im 0
 801:	29          	mult
 802:	05          	add
 803:	56          	storesp 24
 804:	52          	storesp 8
 805:	80          	im 0
 806:	54          	storesp 16
 807:	73          	loadsp 12
 808:	75          	loadsp 20
 809:	27          	ulessthanorequal
 80a:	97          	im 23
 80b:	38          	neqbranch
 80c:	73          	loadsp 12
 80d:	58          	storesp 32

0000080e <.L146>:
 80e:	77          	loadsp 28
 80f:	76          	loadsp 24
 810:	0c          	store
 811:	73          	loadsp 12
 812:	17          	addsp 28
 813:	76          	loadsp 24
 814:	08          	load
 815:	53          	storesp 12
 816:	53          	storesp 12
 817:	71          	loadsp 4
 818:	73          	loadsp 12
 819:	34          	storeb
 81a:	81          	im 1
 81b:	14          	addsp 16
 81c:	54          	storesp 16
 81d:	74          	loadsp 16
 81e:	74          	loadsp 16
 81f:	26          	ulessthan
 820:	ed          	im -19
 821:	38          	neqbranch

00000822 <.L154>:
 822:	75          	loadsp 20
 823:	51          	storesp 4
 824:	8b          	im 11
 825:	fe          	im -2
 826:	2d          	call
 827:	8a          	im 10
 828:	f4          	im -12
 829:	2d          	call
 82a:	81          	im 1
 82b:	84          	im 4
 82c:	51          	storesp 4
 82d:	8a          	im 10
 82e:	c0          	im -64
 82f:	2d          	call
 830:	74          	loadsp 16
 831:	88          	im 8
 832:	2a          	lshiftright
 833:	51          	storesp 4
 834:	8a          	im 10
 835:	c0          	im -64
 836:	2d          	call
 837:	74          	loadsp 16
 838:	51          	storesp 4
 839:	8a          	im 10
 83a:	c0          	im -64
 83b:	2d          	call
 83c:	80          	im 0
 83d:	54          	storesp 16
 83e:	73          	loadsp 12
 83f:	75          	loadsp 20
 840:	27          	ulessthanorequal
 841:	92          	im 18
 842:	38          	neqbranch

00000843 <.L159>:
 843:	73          	loadsp 12
 844:	17          	addsp 28
 845:	70          	loadsp 0
 846:	33          	loadb
 847:	52          	storesp 8
 848:	52          	storesp 8
 849:	8a          	im 10
 84a:	c0          	im -64
 84b:	2d          	call
 84c:	81          	im 1
 84d:	14          	addsp 16
 84e:	54          	storesp 16
 84f:	74          	loadsp 16
 850:	74          	loadsp 16
 851:	26          	ulessthan
 852:	f0          	im -16
 853:	38          	neqbranch

00000854 <.L156>:
 854:	8b          	im 11
 855:	89          	im 9
 856:	2d          	call
 857:	89          	im 9
 858:	3d          	pushspadd
 859:	0d          	popsp
 85a:	04          	poppc

0000085b <_Z19cmd_sst_aai_programPh>:
 85b:	f9          	im -7
 85c:	3d          	pushspadd
 85d:	0d          	popsp
 85e:	79          	loadsp 36
 85f:	56          	storesp 24
 860:	80          	im 0
 861:	c0          	im -64
 862:	80          	im 0
 863:	80          	im 0
 864:	84          	im 4
 865:	55          	storesp 20
 866:	8c          	im 12
 867:	9a          	im 26
 868:	2d          	call
 869:	86          	im 6
 86a:	75          	loadsp 20
 86b:	0c          	store
 86c:	74          	loadsp 16
 86d:	51          	storesp 4
 86e:	8b          	im 11
 86f:	fe          	im -2
 870:	2d          	call
 871:	8c          	im 12
 872:	9a          	im 26
 873:	2d          	call
 874:	81          	im 1
 875:	ad          	im 45
 876:	70          	loadsp 0
 877:	76          	loadsp 24
 878:	0c          	store
 879:	81          	im 1
 87a:	17          	addsp 28
 87b:	33          	loadb
 87c:	82          	im 2
 87d:	18          	addsp 32
 87e:	33          	loadb
 87f:	71          	loadsp 4
 880:	82          	im 2
 881:	80          	im 0
 882:	29          	mult
 883:	05          	add
 884:	83          	im 3
 885:	19          	addsp 36
 886:	33          	loadb
 887:	78          	loadsp 32
 888:	0c          	store
 889:	84          	im 4
 88a:	19          	addsp 36
 88b:	33          	loadb
 88c:	78          	loadsp 32
 88d:	0c          	store
 88e:	85          	im 5
 88f:	19          	addsp 36
 890:	33          	loadb
 891:	78          	loadsp 32
 892:	0c          	store
 893:	59          	storesp 36
 894:	53          	storesp 12
 895:	53          	storesp 12
 896:	80          	im 0
 897:	54          	storesp 16
 898:	73          	loadsp 12
 899:	77          	loadsp 28
 89a:	27          	ulessthanorequal
 89b:	ac          	im 44
 89c:	38          	neqbranch
 89d:	72          	loadsp 8
 89e:	58          	storesp 32

0000089f <.L184>:
 89f:	73          	loadsp 12
 8a0:	80          	im 0
 8a1:	c1          	im -63
 8a2:	38          	neqbranch
 8a3:	73          	loadsp 12
 8a4:	16          	addsp 24
 8a5:	86          	im 6
 8a6:	11          	addsp 4
 8a7:	33          	loadb
 8a8:	76          	loadsp 24
 8a9:	0c          	store
 8aa:	87          	im 7
 8ab:	11          	addsp 4
 8ac:	33          	loadb
 8ad:	76          	loadsp 24
 8ae:	0c          	store
 8af:	52          	storesp 8
 8b0:	74          	loadsp 16
 8b1:	51          	storesp 4
 8b2:	8b          	im 11
 8b3:	fe          	im -2
 8b4:	2d          	call

000008b5 <.L181>:
 8b5:	8e          	im 14
 8b6:	c2          	im -62
 8b7:	2d          	call
 8b8:	88          	im 8
 8b9:	08          	load
 8ba:	81          	im 1
 8bb:	06          	and
 8bc:	52          	storesp 8
 8bd:	71          	loadsp 4
 8be:	f6          	im -10
 8bf:	38          	neqbranch
 8c0:	82          	im 2
 8c1:	14          	addsp 16
 8c2:	54          	storesp 16
 8c3:	76          	loadsp 24
 8c4:	74          	loadsp 16
 8c5:	26          	ulessthan
 8c6:	d8          	im -40
 8c7:	38          	neqbranch

000008c8 <.L188>:
 8c8:	8c          	im 12
 8c9:	9a          	im 26
 8ca:	2d          	call
 8cb:	84          	im 4
 8cc:	75          	loadsp 20
 8cd:	0c          	store
 8ce:	74          	loadsp 16
 8cf:	51          	storesp 4
 8d0:	8b          	im 11
 8d1:	fe          	im -2
 8d2:	2d          	call
 8d3:	8a          	im 10
 8d4:	f4          	im -12
 8d5:	2d          	call
 8d6:	81          	im 1
 8d7:	87          	im 7
 8d8:	51          	storesp 4
 8d9:	8a          	im 10
 8da:	c0          	im -64
 8db:	2d          	call
 8dc:	8b          	im 11
 8dd:	89          	im 9
 8de:	2d          	call
 8df:	89          	im 9
 8e0:	3d          	pushspadd
 8e1:	0d          	popsp
 8e2:	04          	poppc

000008e3 <.L190>:
 8e3:	8c          	im 12
 8e4:	9a          	im 26
 8e5:	2d          	call
 8e6:	77          	loadsp 28
 8e7:	75          	loadsp 20
 8e8:	0c          	store
 8e9:	73          	loadsp 12
 8ea:	16          	addsp 24
 8eb:	86          	im 6
 8ec:	11          	addsp 4
 8ed:	33          	loadb
 8ee:	76          	loadsp 24
 8ef:	0c          	store
 8f0:	87          	im 7
 8f1:	11          	addsp 4
 8f2:	33          	loadb
 8f3:	76          	loadsp 24
 8f4:	0c          	store
 8f5:	52          	storesp 8
 8f6:	74          	loadsp 16
 8f7:	51          	storesp 4
 8f8:	8b          	im 11
 8f9:	fe          	im -2
 8fa:	2d          	call
 8fb:	ff          	im -1
 8fc:	b8          	im 56
 8fd:	39          	poppcrel

000008fe <_Z16cmd_set_baudratePh>:
 8fe:	fc          	im -4
 8ff:	3d          	pushspadd
 900:	0d          	popsp
 901:	76          	loadsp 24
 902:	81          	im 1
 903:	11          	addsp 4
 904:	33          	loadb
 905:	82          	im 2
 906:	12          	addsp 8
 907:	33          	loadb
 908:	71          	loadsp 4
 909:	90          	im 16
 90a:	2b          	ashiftleft
 90b:	71          	loadsp 4
 90c:	88          	im 8
 90d:	2b          	ashiftleft
 90e:	07          	or
 90f:	83          	im 3
 910:	14          	addsp 16
 911:	33          	loadb
 912:	70          	loadsp 0
 913:	72          	loadsp 8
 914:	07          	or
 915:	88          	im 8
 916:	2b          	ashiftleft
 917:	84          	im 4
 918:	16          	addsp 24
 919:	33          	loadb
 91a:	71          	loadsp 4
 91b:	07          	or
 91c:	51          	storesp 4
 91d:	52          	storesp 8
 91e:	53          	storesp 12
 91f:	57          	storesp 28
 920:	57          	storesp 28
 921:	54          	storesp 16
 922:	52          	storesp 8
 923:	88          	im 8
 924:	51          	storesp 4
 925:	8e          	im 14
 926:	ad          	im 45
 927:	2d          	call
 928:	81          	im 1
 929:	ff          	im -1
 92a:	51          	storesp 4
 92b:	8a          	im 10
 92c:	a0          	im 32
 92d:	2d          	call
 92e:	80          	im 0
 92f:	c4          	im -60
 930:	80          	im 0
 931:	80          	im 0
 932:	84          	im 4
 933:	53          	storesp 12

00000934 <.L192>:
 934:	72          	loadsp 8
 935:	08          	load
 936:	70          	loadsp 0
 937:	81          	im 1
 938:	2a          	lshiftright
 939:	70          	loadsp 0
 93a:	81          	im 1
 93b:	06          	and
 93c:	51          	storesp 4
 93d:	51          	storesp 4
 93e:	52          	storesp 8
 93f:	71          	loadsp 4
 940:	f3          	im -13
 941:	38          	neqbranch
 942:	73          	loadsp 12
 943:	84          	im 4
 944:	80          	im 0
 945:	80          	im 0
 946:	07          	or
 947:	80          	im 0
 948:	c4          	im -60
 949:	80          	im 0
 94a:	80          	im 0
 94b:	84          	im 4
 94c:	0c          	store
 94d:	86          	im 6
 94e:	3d          	pushspadd
 94f:	0d          	popsp
 950:	04          	poppc

00000951 <_Z13cmd_waitreadyPh>:
 951:	fe          	im -2
 952:	3d          	pushspadd
 953:	0d          	popsp

00000954 <.L203>:
 954:	8e          	im 14
 955:	c2          	im -62
 956:	2d          	call
 957:	88          	im 8
 958:	08          	load
 959:	88          	im 8
 95a:	08          	load
 95b:	81          	im 1
 95c:	06          	and
 95d:	53          	storesp 12
 95e:	53          	storesp 12
 95f:	71          	loadsp 4
 960:	f3          	im -13
 961:	38          	neqbranch
 962:	8a          	im 10
 963:	f4          	im -12
 964:	2d          	call
 965:	81          	im 1
 966:	83          	im 3
 967:	51          	storesp 4
 968:	8a          	im 10
 969:	c0          	im -64
 96a:	2d          	call
 96b:	72          	loadsp 8
 96c:	51          	storesp 4
 96d:	8a          	im 10
 96e:	c0          	im -64
 96f:	2d          	call
 970:	8b          	im 11
 971:	89          	im 9
 972:	2d          	call
 973:	84          	im 4
 974:	3d          	pushspadd
 975:	0d          	popsp
 976:	04          	poppc

00000977 <_Z11cmd_versionPh>:
 977:	fe          	im -2
 978:	3d          	pushspadd
 979:	0d          	popsp
 97a:	80          	im 0
 97b:	0b          	nop
 97c:	9e          	im 30
 97d:	bc          	im 60
 97e:	0c          	store
 97f:	8a          	im 10
 980:	f4          	im -12
 981:	2d          	call
 982:	81          	im 1
 983:	81          	im 1
 984:	51          	storesp 4
 985:	8a          	im 10
 986:	c0          	im -64
 987:	2d          	call
 988:	9e          	im 30
 989:	94          	im 20
 98a:	53          	storesp 12
 98b:	8f          	im 15
 98c:	52          	storesp 8

0000098d <.L210>:
 98d:	72          	loadsp 8
 98e:	70          	loadsp 0
 98f:	81          	im 1
 990:	05          	add
 991:	54          	storesp 16
 992:	33          	loadb
 993:	51          	storesp 4
 994:	8a          	im 10
 995:	c0          	im -64
 996:	2d          	call
 997:	ff          	im -1
 998:	12          	addsp 8
 999:	52          	storesp 8
 99a:	71          	loadsp 4
 99b:	ff          	im -1
 99c:	2e          	eq
 99d:	09          	not
 99e:	81          	im 1
 99f:	06          	and
 9a0:	ec          	im -20
 9a1:	38          	neqbranch
 9a2:	8b          	im 11
 9a3:	89          	im 9
 9a4:	2d          	call
 9a5:	84          	im 4
 9a6:	3d          	pushspadd
 9a7:	0d          	popsp
 9a8:	04          	poppc

000009a9 <_Z12cmd_identifyPh>:
 9a9:	fe          	im -2
 9aa:	3d          	pushspadd
 9ab:	0d          	popsp
 9ac:	80          	im 0
 9ad:	0b          	nop
 9ae:	9e          	im 30
 9af:	bc          	im 60
 9b0:	0c          	store
 9b1:	8a          	im 10
 9b2:	f4          	im -12
 9b3:	2d          	call
 9b4:	81          	im 1
 9b5:	82          	im 2
 9b6:	51          	storesp 4
 9b7:	8a          	im 10
 9b8:	c0          	im -64
 9b9:	2d          	call
 9ba:	80          	im 0
 9bb:	c0          	im -64
 9bc:	80          	im 0
 9bd:	80          	im 0
 9be:	84          	im 4
 9bf:	52          	storesp 8
 9c0:	8c          	im 12
 9c1:	9a          	im 26
 9c2:	2d          	call
 9c3:	81          	im 1
 9c4:	f9          	im -7
 9c5:	0a          	flip
 9c6:	0b          	nop
 9c7:	80          	im 0
 9c8:	c0          	im -64
 9c9:	80          	im 0
 9ca:	80          	im 0
 9cb:	9c          	im 28
 9cc:	0c          	store
 9cd:	71          	loadsp 4
 9ce:	08          	load
 9cf:	72          	loadsp 8
 9d0:	52          	storesp 8
 9d1:	53          	storesp 12
 9d2:	8b          	im 11
 9d3:	fe          	im -2
 9d4:	2d          	call
 9d5:	72          	loadsp 8
 9d6:	9e          	im 30
 9d7:	c4          	im -60
 9d8:	0c          	store
 9d9:	72          	loadsp 8
 9da:	90          	im 16
 9db:	2a          	lshiftright
 9dc:	51          	storesp 4
 9dd:	8a          	im 10
 9de:	c0          	im -64
 9df:	2d          	call
 9e0:	9e          	im 30
 9e1:	c4          	im -60
 9e2:	08          	load
 9e3:	88          	im 8
 9e4:	2a          	lshiftright
 9e5:	51          	storesp 4
 9e6:	8a          	im 10
 9e7:	c0          	im -64
 9e8:	2d          	call
 9e9:	9e          	im 30
 9ea:	c4          	im -60
 9eb:	08          	load
 9ec:	51          	storesp 4
 9ed:	8a          	im 10
 9ee:	c0          	im -64
 9ef:	2d          	call
 9f0:	8e          	im 14
 9f1:	c2          	im -62
 9f2:	2d          	call
 9f3:	88          	im 8
 9f4:	08          	load
 9f5:	51          	storesp 4
 9f6:	8a          	im 10
 9f7:	c0          	im -64
 9f8:	2d          	call
 9f9:	8b          	im 11
 9fa:	89          	im 9
 9fb:	2d          	call
 9fc:	84          	im 4
 9fd:	3d          	pushspadd
 9fe:	0d          	popsp
 9ff:	04          	poppc

00000a00 <_Z12cmd_enterpgmPh>:
 a00:	80          	im 0
 a01:	3d          	pushspadd
 a02:	0d          	popsp
 a03:	81          	im 1
 a04:	0b          	nop
 a05:	9e          	im 30
 a06:	c0          	im -64
 a07:	0c          	store
 a08:	80          	im 0
 a09:	0b          	nop
 a0a:	83          	im 3
 a0b:	90          	im 16
 a0c:	0a          	flip
 a0d:	0c          	store
 a0e:	85          	im 5
 a0f:	51          	storesp 4
 a10:	8e          	im 14
 a11:	ad          	im 45
 a12:	2d          	call
 a13:	82          	im 2
 a14:	3d          	pushspadd
 a15:	0d          	popsp
 a16:	04          	poppc

00000a17 <_Z12cmd_leavepgmPh>:
 a17:	80          	im 0
 a18:	3d          	pushspadd
 a19:	0d          	popsp
 a1a:	80          	im 0
 a1b:	0b          	nop
 a1c:	9e          	im 30
 a1d:	c0          	im -64
 a1e:	0c          	store
 a1f:	8b          	im 11
 a20:	e5          	im -27
 a21:	2d          	call
 a22:	86          	im 6
 a23:	51          	storesp 4
 a24:	8e          	im 14
 a25:	ad          	im 45
 a26:	2d          	call
 a27:	82          	im 2
 a28:	3d          	pushspadd
 a29:	0d          	popsp
 a2a:	04          	poppc

00000a2b <_Z9cmd_startPh>:
 a2b:	ff          	im -1
 a2c:	3d          	pushspadd
 a2d:	0d          	popsp
 a2e:	80          	im 0
 a2f:	c0          	im -64
 a30:	80          	im 0
 a31:	80          	im 0
 a32:	84          	im 4
 a33:	52          	storesp 8
 a34:	8a          	im 10
 a35:	51          	storesp 4
 a36:	8e          	im 14
 a37:	ad          	im 45
 a38:	2d          	call
 a39:	8c          	im 12
 a3a:	9a          	im 26
 a3b:	2d          	call
 a3c:	71          	loadsp 4
 a3d:	51          	storesp 4
 a3e:	8c          	im 12
 a3f:	c0          	im -64
 a40:	2d          	call
 a41:	88          	im 8
 a42:	08          	load
 a43:	10          	addsp 0
 a44:	10          	addsp 0
 a45:	90          	im 16
 a46:	c0          	im -64
 a47:	84          	im 4
 a48:	05          	add
 a49:	9e          	im 30
 a4a:	b8          	im 56
 a4b:	0c          	store
 a4c:	71          	loadsp 4
 a4d:	51          	storesp 4
 a4e:	8b          	im 11
 a4f:	fe          	im -2
 a50:	2d          	call
 a51:	8a          	im 10
 a52:	85          	im 5
 a53:	2d          	call
 a54:	8c          	im 12
 a55:	b1          	im 49
 a56:	2d          	call
 a57:	83          	im 3
 a58:	3d          	pushspadd
 a59:	0d          	popsp
 a5a:	04          	poppc

00000a5b <main>:
 a5b:	ff          	im -1
 a5c:	ad          	im 45
 a5d:	3d          	pushspadd
 a5e:	0d          	popsp
 a5f:	80          	im 0
 a60:	0b          	nop
 a61:	9e          	im 30
 a62:	c0          	im -64
 a63:	0c          	store
 a64:	80          	im 0
 a65:	0b          	nop
 a66:	9e          	im 30
 a67:	bc          	im 60
 a68:	0c          	store
 a69:	80          	im 0
 a6a:	0b          	nop
 a6b:	8e          	im 14
 a6c:	90          	im 16
 a6d:	0b          	nop
 a6e:	a0          	im 32
 a6f:	80          	im 0
 a70:	0c          	store
 a71:	57          	storesp 28
 a72:	84          	im 4
 a73:	80          	im 0
 a74:	b3          	im 51
 a75:	0b          	nop
 a76:	80          	im 0
 a77:	c4          	im -60
 a78:	80          	im 0
 a79:	80          	im 0
 a7a:	84          	im 4
 a7b:	0c          	store
 a7c:	80          	im 0
 a7d:	c8          	im -56
 a7e:	80          	im 0
 a7f:	80          	im 0
 a80:	a4          	im 36
 a81:	53          	storesp 12
 a82:	fb          	im -5
 a83:	ff          	im -1
 a84:	ff          	im -1
 a85:	73          	loadsp 12
 a86:	08          	load
 a87:	70          	loadsp 0
 a88:	72          	loadsp 8
 a89:	06          	and
 a8a:	75          	loadsp 20
 a8b:	0c          	store
 a8c:	53          	storesp 12
 a8d:	54          	storesp 16
 a8e:	80          	im 0
 a8f:	c8          	im -56
 a90:	80          	im 0
 a91:	80          	im 0
 a92:	94          	im 20
 a93:	70          	loadsp 0
 a94:	08          	load
 a95:	70          	loadsp 0
 a96:	76          	loadsp 24
 a97:	06          	and
 a98:	72          	loadsp 8
 a99:	0c          	store
 a9a:	53          	storesp 12
 a9b:	53          	storesp 12
 a9c:	a8          	im 40
 a9d:	70          	loadsp 0
 a9e:	99          	im 25
 a9f:	96          	im 22
 aa0:	71          	loadsp 4
 aa1:	70          	loadsp 0
 aa2:	84          	im 4
 aa3:	05          	add
 aa4:	53          	storesp 12
 aa5:	0c          	store
 aa6:	99          	im 25
 aa7:	f3          	im -13
 aa8:	71          	loadsp 4
 aa9:	0c          	store
 aaa:	53          	storesp 12
 aab:	9b          	im 27
 aac:	8c          	im 12
 aad:	0b          	nop
 aae:	88          	im 8
 aaf:	12          	addsp 8
 ab0:	0c          	store
 ab1:	9c          	im 28
 ab2:	9b          	im 27
 ab3:	0b          	nop
 ab4:	8c          	im 12
 ab5:	12          	addsp 8
 ab6:	0c          	store
 ab7:	53          	storesp 12
 ab8:	88          	im 8
 ab9:	0b          	nop
 aba:	80          	im 0
 abb:	d0          	im -48
 abc:	80          	im 0
 abd:	80          	im 0
 abe:	84          	im 4
 abf:	0c          	store
 ac0:	81          	im 1
 ac1:	0b          	nop
 ac2:	80          	im 0
 ac3:	d0          	im -48
 ac4:	0a          	flip
 ac5:	0c          	store
 ac6:	8b          	im 11
 ac7:	e5          	im -27
 ac8:	2d          	call
 ac9:	82          	im 2
 aca:	88          	im 8
 acb:	88          	im 8
 acc:	0b          	nop
 acd:	80          	im 0
 ace:	dc          	im -36
 acf:	80          	im 0
 ad0:	80          	im 0
 ad1:	84          	im 4
 ad2:	0c          	store
 ad3:	81          	im 1
 ad4:	f2          	im -14
 ad5:	0b          	nop
 ad6:	90          	im 16
 ad7:	0a          	flip
 ad8:	0c          	store
 ad9:	80          	im 0
 ada:	c0          	im -64
 adb:	80          	im 0
 adc:	80          	im 0
 add:	84          	im 4
 ade:	70          	loadsp 0
 adf:	52          	storesp 8
 ae0:	52          	storesp 8
 ae1:	8b          	im 11
 ae2:	fe          	im -2
 ae3:	2d          	call
 ae4:	8c          	im 12
 ae5:	9a          	im 26
 ae6:	2d          	call
 ae7:	71          	loadsp 4
 ae8:	51          	storesp 4
 ae9:	8b          	im 11
 aea:	fe          	im -2
 aeb:	2d          	call
 aec:	8c          	im 12
 aed:	9a          	im 26
 aee:	2d          	call
 aef:	84          	im 4
 af0:	72          	loadsp 8
 af1:	0c          	store
 af2:	71          	loadsp 4
 af3:	51          	storesp 4
 af4:	8b          	im 11
 af5:	fe          	im -2
 af6:	2d          	call
 af7:	76          	loadsp 24
 af8:	77          	loadsp 28
 af9:	8f          	im 15
 afa:	3d          	pushspadd
 afb:	5e          	storesp 56
 afc:	5a          	storesp 40
 afd:	5a          	storesp 40
 afe:	83          	im 3
 aff:	d0          	im -48
 b00:	0a          	flip
 b01:	5b          	storesp 44

00000b02 <.L270>:
 b02:	8b          	im 11
 b03:	aa          	im 42
 b04:	2d          	call
 b05:	88          	im 8
 b06:	08          	load
 b07:	53          	storesp 12
 b08:	78          	loadsp 32
 b09:	80          	im 0
 b0a:	2e          	eq
 b0b:	bc          	im 60
 b0c:	38          	neqbranch

00000b0d <.L274>:
 b0d:	88          	im 8
 b0e:	08          	load
 b0f:	80          	im 0
 b10:	fe          	im -2
 b11:	2e          	eq
 b12:	80          	im 0
 b13:	d2          	im -46
 b14:	38          	neqbranch
 b15:	88          	im 8
 b16:	08          	load
 b17:	80          	im 0
 b18:	fd          	im -3
 b19:	2e          	eq
 b1a:	81          	im 1
 b1b:	be          	im 62
 b1c:	38          	neqbranch
 b1d:	76          	loadsp 24
 b1e:	82          	im 2
 b1f:	9f          	im 31
 b20:	26          	ulessthan
 b21:	bf          	im 63
 b22:	38          	neqbranch
 b23:	79          	loadsp 36
 b24:	80          	im 0
 b25:	2e          	eq
 b26:	89          	im 9
 b27:	38          	neqbranch
 b28:	80          	im 0
 b29:	0b          	nop
 b2a:	88          	im 8
 b2b:	08          	load
 b2c:	a0          	im 32
 b2d:	32          	xor
 b2e:	54          	storesp 16
 b2f:	5a          	storesp 40

00000b30 <.L260>:
 b30:	80          	im 0
 b31:	d5          	im -43
 b32:	3d          	pushspadd
 b33:	77          	loadsp 28
 b34:	05          	add
 b35:	fd          	im -3
 b36:	e0          	im -32
 b37:	05          	add
 b38:	52          	storesp 8
 b39:	72          	loadsp 8
 b3a:	72          	loadsp 8
 b3b:	34          	storeb
 b3c:	81          	im 1
 b3d:	17          	addsp 28
 b3e:	57          	storesp 28
 b3f:	8b          	im 11
 b40:	aa          	im 42
 b41:	2d          	call
 b42:	88          	im 8
 b43:	08          	load
 b44:	53          	storesp 12
 b45:	78          	loadsp 32
 b46:	c6          	im -58
 b47:	38          	neqbranch

00000b48 <.L245>:
 b48:	88          	im 8
 b49:	08          	load
 b4a:	80          	im 0
 b4b:	fe          	im -2
 b4c:	2e          	eq
 b4d:	09          	not
 b4e:	81          	im 1
 b4f:	06          	and
 b50:	ff          	im -1
 b51:	b0          	im 48
 b52:	38          	neqbranch
 b53:	78          	loadsp 32
 b54:	57          	storesp 28
 b55:	83          	im 3
 b56:	ff          	im -1
 b57:	ff          	im -1
 b58:	7b          	loadsp 44
 b59:	0c          	store
 b5a:	81          	im 1
 b5b:	77          	loadsp 28
 b5c:	5b          	storesp 44
 b5d:	59          	storesp 36
 b5e:	ff          	im -1
 b5f:	a2          	im 34
 b60:	39          	poppcrel

00000b61 <.L259>:
 b61:	80          	im 0
 b62:	59          	storesp 36
 b63:	ff          	im -1
 b64:	9d          	im 29
 b65:	39          	poppcrel

00000b66 <.L272>:
 b66:	76          	loadsp 24
 b67:	80          	im 0
 b68:	2e          	eq
 b69:	ff          	im -1
 b6a:	97          	im 23
 b6b:	38          	neqbranch
 b6c:	80          	im 0
 b6d:	7c          	loadsp 48
 b6e:	78          	loadsp 32
 b6f:	58          	storesp 32
 b70:	56          	storesp 24
 b71:	59          	storesp 36
 b72:	82          	im 2
 b73:	77          	loadsp 28
 b74:	27          	ulessthanorequal
 b75:	ff          	im -1
 b76:	8b          	im 11
 b77:	38          	neqbranch
 b78:	83          	im 3
 b79:	ff          	im -1
 b7a:	ff          	im -1
 b7b:	7b          	loadsp 44
 b7c:	0c          	store
 b7d:	78          	loadsp 32
 b7e:	fe          	im -2
 b7f:	18          	addsp 32
 b80:	53          	storesp 12
 b81:	53          	storesp 12
 b82:	78          	loadsp 32
 b83:	72          	loadsp 8
 b84:	27          	ulessthanorequal
 b85:	98          	im 24
 b86:	38          	neqbranch
 b87:	80          	im 0
 b88:	dc          	im -36
 b89:	80          	im 0
 b8a:	80          	im 0
 b8b:	88          	im 8
 b8c:	72          	loadsp 8
 b8d:	55          	storesp 20
 b8e:	58          	storesp 32

00000b8f <.L253>:
 b8f:	72          	loadsp 8
 b90:	15          	addsp 20
 b91:	70          	loadsp 0
 b92:	33          	loadb
 b93:	79          	loadsp 36
 b94:	0c          	store
 b95:	52          	storesp 8
 b96:	81          	im 1
 b97:	13          	addsp 12
 b98:	53          	storesp 12
 b99:	73          	loadsp 12
 b9a:	73          	loadsp 12
 b9b:	26          	ulessthan
 b9c:	f2          	im -14
 b9d:	38          	neqbranch

00000b9e <.L266>:
 b9e:	ff          	im -1
 b9f:	16          	addsp 24
 ba0:	75          	loadsp 20
 ba1:	11          	addsp 4
 ba2:	54          	storesp 16
 ba3:	75          	loadsp 20
 ba4:	05          	add
 ba5:	ff          	im -1
 ba6:	05          	add
 ba7:	70          	loadsp 0
 ba8:	33          	loadb
 ba9:	74          	loadsp 16
 baa:	33          	loadb
 bab:	70          	loadsp 0
 bac:	72          	loadsp 8
 bad:	88          	im 8
 bae:	2b          	ashiftleft
 baf:	07          	or
 bb0:	7e          	loadsp 56
 bb1:	08          	load
 bb2:	53          	storesp 12
 bb3:	51          	storesp 4
 bb4:	55          	storesp 20
 bb5:	51          	storesp 4
 bb6:	52          	storesp 8
 bb7:	71          	loadsp 4
 bb8:	73          	loadsp 12
 bb9:	2e          	eq
 bba:	09          	not
 bbb:	81          	im 1
 bbc:	06          	and
 bbd:	fe          	im -2
 bbe:	c3          	im -61
 bbf:	38          	neqbranch
 bc0:	74          	loadsp 16
 bc1:	33          	loadb
 bc2:	53          	storesp 12
 bc3:	72          	loadsp 8
 bc4:	8a          	im 10
 bc5:	26          	ulessthan
 bc6:	fe          	im -2
 bc7:	ba          	im 58
 bc8:	38          	neqbranch
 bc9:	72          	loadsp 8
 bca:	10          	addsp 0
 bcb:	10          	addsp 0
 bcc:	9d          	im 29
 bcd:	e8          	im -24
 bce:	05          	add
 bcf:	75          	loadsp 20
 bd0:	52          	storesp 8
 bd1:	70          	loadsp 0
 bd2:	08          	load
 bd3:	51          	storesp 4
 bd4:	52          	storesp 8
 bd5:	71          	loadsp 4
 bd6:	2d          	call
 bd7:	fe          	im -2
 bd8:	a9          	im 41
 bd9:	39          	poppcrel

00000bda <.L273>:
 bda:	81          	im 1
 bdb:	5a          	storesp 40
 bdc:	fe          	im -2
 bdd:	a4          	im 36
 bde:	39          	poppcrel

00000bdf <___zpu_interrupt_vector>:
 bdf:	80          	im 0
 be0:	3d          	pushspadd
 be1:	0d          	popsp
 be2:	88          	im 8
 be3:	08          	load
 be4:	8c          	im 12
 be5:	08          	load
 be6:	90          	im 16
 be7:	08          	load
 be8:	a0          	im 32
 be9:	80          	im 0
 bea:	08          	load
 beb:	51          	storesp 4
 bec:	70          	loadsp 0
 bed:	2d          	call
 bee:	90          	im 16
 bef:	0c          	store
 bf0:	8c          	im 12
 bf1:	0c          	store
 bf2:	8a          	im 10
 bf3:	0c          	store
 bf4:	81          	im 1
 bf5:	0b          	nop
 bf6:	80          	im 0
 bf7:	d0          	im -48
 bf8:	0a          	flip
 bf9:	0c          	store
 bfa:	82          	im 2
 bfb:	3d          	pushspadd
 bfc:	0d          	popsp
 bfd:	04          	poppc

00000bfe <_premain>:
 bfe:	ff          	im -1
 bff:	3d          	pushspadd
 c00:	0d          	popsp
 c01:	80          	im 0
 c02:	52          	storesp 8
 c03:	80          	im 0
 c04:	51          	storesp 4
 c05:	94          	im 20
 c06:	db          	im -37
 c07:	2d          	call
 c08:	83          	im 3
 c09:	3d          	pushspadd
 c0a:	0d          	popsp
 c0b:	04          	poppc

00000c0c <spi_copy>:
 c0c:	80          	im 0
 c0d:	ff          	im -1
 c0e:	f8          	im -8
 c0f:	0d          	popsp
 c10:	8c          	im 12
 c11:	df          	im -33
 c12:	04          	poppc

00000c13 <start_sketch>:
 c13:	80          	im 0
 c14:	ff          	im -1
 c15:	f8          	im -8
 c16:	0d          	popsp
 c17:	a0          	im 32
 c18:	88          	im 8
 c19:	04          	poppc

00000c1a <__divsi3>:
 c1a:	fb          	im -5
 c1b:	3d          	pushspadd
 c1c:	0d          	popsp
 c1d:	77          	loadsp 28
 c1e:	79          	loadsp 36
 c1f:	55          	storesp 20
 c20:	55          	storesp 20
 c21:	80          	im 0
 c22:	56          	storesp 24
 c23:	75          	loadsp 20
 c24:	75          	loadsp 20
 c25:	24          	lessthan
 c26:	ab          	im 43
 c27:	38          	neqbranch
 c28:	80          	im 0
 c29:	74          	loadsp 16
 c2a:	24          	lessthan
 c2b:	9d          	im 29
 c2c:	38          	neqbranch

00000c2d <.L4>:
 c2d:	80          	im 0
 c2e:	53          	storesp 12
 c2f:	73          	loadsp 12
 c30:	52          	storesp 8
 c31:	74          	loadsp 16
 c32:	51          	storesp 4
 c33:	80          	im 0
 c34:	e1          	im -31
 c35:	3f          	callpcrel
 c36:	88          	im 8
 c37:	08          	load
 c38:	54          	storesp 16
 c39:	75          	loadsp 20
 c3a:	80          	im 0
 c3b:	2e          	eq
 c3c:	85          	im 5
 c3d:	38          	neqbranch
 c3e:	88          	im 8
 c3f:	08          	load
 c40:	30          	neg
 c41:	54          	storesp 16

00000c42 <.L6>:
 c42:	73          	loadsp 12
 c43:	88          	im 8
 c44:	0c          	store
 c45:	87          	im 7
 c46:	3d          	pushspadd
 c47:	0d          	popsp
 c48:	04          	poppc

00000c49 <.L9>:
 c49:	73          	loadsp 12
 c4a:	30          	neg
 c4b:	76          	loadsp 24
 c4c:	81          	im 1
 c4d:	32          	xor
 c4e:	57          	storesp 28
 c4f:	54          	storesp 16
 c50:	dc          	im -36
 c51:	39          	poppcrel

00000c52 <.L8>:
 c52:	74          	loadsp 16
 c53:	30          	neg
 c54:	55          	storesp 20
 c55:	81          	im 1
 c56:	56          	storesp 24
 c57:	73          	loadsp 12
 c58:	80          	im 0
 c59:	25          	lessthanorequal
 c5a:	d2          	im -46
 c5b:	38          	neqbranch
 c5c:	ec          	im -20
 c5d:	39          	poppcrel

00000c5e <__modsi3>:
 c5e:	fa          	im -6
 c5f:	3d          	pushspadd
 c60:	0d          	popsp
 c61:	78          	loadsp 32
 c62:	7a          	loadsp 40
 c63:	57          	storesp 28
 c64:	55          	storesp 20
 c65:	80          	im 0
 c66:	57          	storesp 28
 c67:	76          	loadsp 24
 c68:	75          	loadsp 20
 c69:	24          	lessthan
 c6a:	a4          	im 36
 c6b:	38          	neqbranch

00000c6c <.L11>:
 c6c:	75          	loadsp 20
 c6d:	9f          	im 31
 c6e:	2c          	ashiftright
 c6f:	54          	storesp 16
 c70:	81          	im 1
 c71:	53          	storesp 12
 c72:	75          	loadsp 20
 c73:	74          	loadsp 16
 c74:	32          	xor
 c75:	74          	loadsp 16
 c76:	31          	sub
 c77:	52          	storesp 8
 c78:	74          	loadsp 16
 c79:	51          	storesp 4
 c7a:	9b          	im 27
 c7b:	3f          	callpcrel
 c7c:	88          	im 8
 c7d:	08          	load
 c7e:	54          	storesp 16
 c7f:	76          	loadsp 24
 c80:	80          	im 0
 c81:	2e          	eq
 c82:	85          	im 5
 c83:	38          	neqbranch
 c84:	88          	im 8
 c85:	08          	load
 c86:	30          	neg
 c87:	54          	storesp 16

00000c88 <.L13>:
 c88:	73          	loadsp 12
 c89:	88          	im 8
 c8a:	0c          	store
 c8b:	88          	im 8
 c8c:	3d          	pushspadd
 c8d:	0d          	popsp
 c8e:	04          	poppc

00000c8f <.L15>:
 c8f:	74          	loadsp 16
 c90:	30          	neg
 c91:	55          	storesp 20
 c92:	81          	im 1
 c93:	57          	storesp 28
 c94:	d7          	im -41
 c95:	39          	poppcrel

00000c96 <udivmodsi4>:
 c96:	fc          	im -4
 c97:	3d          	pushspadd
 c98:	0d          	popsp
 c99:	76          	loadsp 24
 c9a:	78          	loadsp 32
 c9b:	53          	storesp 12
 c9c:	54          	storesp 16
 c9d:	81          	im 1
 c9e:	53          	storesp 12
 c9f:	80          	im 0
 ca0:	74          	loadsp 16
 ca1:	73          	loadsp 12
 ca2:	26          	ulessthan
 ca3:	52          	storesp 8
 ca4:	55          	storesp 20
 ca5:	72          	loadsp 8
 ca6:	80          	im 0
 ca7:	2e          	eq
 ca8:	98          	im 24
 ca9:	38          	neqbranch

00000caa <.L16>:
 caa:	70          	loadsp 0
 cab:	80          	im 0
 cac:	2e          	eq
 cad:	a9          	im 41
 cae:	38          	neqbranch
 caf:	80          	im 0
 cb0:	72          	loadsp 8
 cb1:	24          	lessthan
 cb2:	a4          	im 36
 cb3:	38          	neqbranch
 cb4:	71          	loadsp 4
 cb5:	10          	addsp 0
 cb6:	73          	loadsp 12
 cb7:	10          	addsp 0
 cb8:	75          	loadsp 20
 cb9:	72          	loadsp 8
 cba:	26          	ulessthan
 cbb:	53          	storesp 12
 cbc:	54          	storesp 16
 cbd:	52          	storesp 8
 cbe:	72          	loadsp 8
 cbf:	ea          	im -22
 cc0:	38          	neqbranch

00000cc1 <.L13>:
 cc1:	73          	loadsp 12
 cc2:	51          	storesp 4
 cc3:	78          	loadsp 32
 cc4:	83          	im 3
 cc5:	38          	neqbranch
 cc6:	74          	loadsp 16
 cc7:	51          	storesp 4

00000cc8 <.L1>:
 cc8:	70          	loadsp 0
 cc9:	88          	im 8
 cca:	0c          	store
 ccb:	86          	im 6
 ccc:	3d          	pushspadd
 ccd:	0d          	popsp
 cce:	04          	poppc

00000ccf <.L9>:
 ccf:	72          	loadsp 8
 cd0:	81          	im 1
 cd1:	2a          	lshiftright
 cd2:	72          	loadsp 8
 cd3:	81          	im 1
 cd4:	2a          	lshiftright
 cd5:	53          	storesp 12
 cd6:	53          	storesp 12

00000cd7 <.L3>:
 cd7:	72          	loadsp 8
 cd8:	80          	im 0
 cd9:	2e          	eq
 cda:	e6          	im -26
 cdb:	38          	neqbranch
 cdc:	71          	loadsp 4
 cdd:	74          	loadsp 16
 cde:	26          	ulessthan
 cdf:	ef          	im -17
 ce0:	38          	neqbranch
 ce1:	73          	loadsp 12
 ce2:	72          	loadsp 8
 ce3:	31          	sub
 ce4:	75          	loadsp 20
 ce5:	74          	loadsp 16
 ce6:	07          	or
 ce7:	74          	loadsp 16
 ce8:	81          	im 1
 ce9:	2a          	lshiftright
 cea:	74          	loadsp 16
 ceb:	81          	im 1
 cec:	2a          	lshiftright
 ced:	55          	storesp 20
 cee:	55          	storesp 20
 cef:	56          	storesp 24
 cf0:	54          	storesp 16
 cf1:	e5          	im -27
 cf2:	39          	poppcrel

00000cf3 <memcpy>:
 cf3:	fc          	im -4
 cf4:	3d          	pushspadd
 cf5:	0d          	popsp
 cf6:	76          	loadsp 24

00000cf7 <.LM2>:
 cf7:	70          	loadsp 0

00000cf8 <.LM3>:
 cf8:	79          	loadsp 36

00000cf9 <.LM4>:
 cf9:	7b          	loadsp 44
 cfa:	55          	storesp 20
 cfb:	55          	storesp 20
 cfc:	55          	storesp 20
 cfd:	55          	storesp 20

00000cfe <.LM5>:
 cfe:	8f          	im 15
 cff:	72          	loadsp 8
 d00:	27          	ulessthanorequal
 d01:	8c          	im 12
 d02:	38          	neqbranch
 d03:	72          	loadsp 8
 d04:	75          	loadsp 20
 d05:	07          	or
 d06:	83          	im 3
 d07:	06          	and
 d08:	51          	storesp 4
 d09:	70          	loadsp 0
 d0a:	80          	im 0
 d0b:	2e          	eq
 d0c:	a7          	im 39
 d0d:	38          	neqbranch

00000d0e <.L2>:
 d0e:	ff          	im -1
 d0f:	12          	addsp 8
 d10:	52          	storesp 8
 d11:	71          	loadsp 4
 d12:	ff          	im -1
 d13:	2e          	eq
 d14:	98          	im 24
 d15:	38          	neqbranch

00000d16 <.L21>:
 d16:	72          	loadsp 8
 d17:	70          	loadsp 0
 d18:	81          	im 1
 d19:	05          	add
 d1a:	54          	storesp 16
 d1b:	33          	loadb
 d1c:	74          	loadsp 16
 d1d:	70          	loadsp 0
 d1e:	81          	im 1
 d1f:	05          	add
 d20:	56          	storesp 24
 d21:	34          	storeb
 d22:	ff          	im -1
 d23:	12          	addsp 8
 d24:	52          	storesp 8
 d25:	71          	loadsp 4
 d26:	ff          	im -1
 d27:	2e          	eq
 d28:	09          	not
 d29:	81          	im 1
 d2a:	06          	and
 d2b:	ea          	im -22
 d2c:	38          	neqbranch

00000d2d <.L17>:
 d2d:	74          	loadsp 16
 d2e:	88          	im 8
 d2f:	0c          	store
 d30:	86          	im 6
 d31:	3d          	pushspadd
 d32:	0d          	popsp
 d33:	04          	poppc

00000d34 <.L20>:
 d34:	74          	loadsp 16
 d35:	51          	storesp 4

00000d36 <.L5>:
 d36:	72          	loadsp 8
 d37:	70          	loadsp 0
 d38:	84          	im 4
 d39:	05          	add
 d3a:	54          	storesp 16
 d3b:	08          	load
 d3c:	71          	loadsp 4
 d3d:	70          	loadsp 0
 d3e:	84          	im 4
 d3f:	05          	add
 d40:	53          	storesp 12
 d41:	0c          	store

00000d42 <.LM10>:
 d42:	72          	loadsp 8
 d43:	70          	loadsp 0
 d44:	84          	im 4
 d45:	05          	add
 d46:	54          	storesp 16
 d47:	08          	load
 d48:	71          	loadsp 4
 d49:	70          	loadsp 0
 d4a:	84          	im 4
 d4b:	05          	add
 d4c:	53          	storesp 12
 d4d:	0c          	store

00000d4e <.LM11>:
 d4e:	72          	loadsp 8
 d4f:	70          	loadsp 0
 d50:	84          	im 4
 d51:	05          	add
 d52:	54          	storesp 16
 d53:	08          	load
 d54:	71          	loadsp 4
 d55:	70          	loadsp 0
 d56:	84          	im 4
 d57:	05          	add
 d58:	53          	storesp 12
 d59:	0c          	store

00000d5a <.LM12>:
 d5a:	72          	loadsp 8
 d5b:	70          	loadsp 0
 d5c:	84          	im 4
 d5d:	05          	add
 d5e:	54          	storesp 16
 d5f:	08          	load
 d60:	71          	loadsp 4
 d61:	70          	loadsp 0
 d62:	84          	im 4
 d63:	05          	add
 d64:	53          	storesp 12
 d65:	0c          	store

00000d66 <.LM13>:
 d66:	f0          	im -16
 d67:	12          	addsp 8
 d68:	52          	storesp 8
 d69:	71          	loadsp 4
 d6a:	8f          	im 15
 d6b:	26          	ulessthan
 d6c:	c9          	im -55
 d6d:	38          	neqbranch

00000d6e <.LM14>:
 d6e:	83          	im 3
 d6f:	72          	loadsp 8
 d70:	27          	ulessthanorequal
 d71:	95          	im 21
 d72:	38          	neqbranch

00000d73 <.L22>:
 d73:	72          	loadsp 8
 d74:	70          	loadsp 0
 d75:	84          	im 4
 d76:	05          	add
 d77:	54          	storesp 16
 d78:	08          	load
 d79:	71          	loadsp 4
 d7a:	70          	loadsp 0
 d7b:	84          	im 4
 d7c:	05          	add
 d7d:	53          	storesp 12
 d7e:	0c          	store

00000d7f <.LM16>:
 d7f:	fc          	im -4
 d80:	12          	addsp 8
 d81:	52          	storesp 8
 d82:	71          	loadsp 4
 d83:	83          	im 3
 d84:	26          	ulessthan
 d85:	ed          	im -19
 d86:	38          	neqbranch

00000d87 <.L15>:
 d87:	70          	loadsp 0
 d88:	54          	storesp 16
 d89:	ff          	im -1
 d8a:	83          	im 3
 d8b:	39          	poppcrel

00000d8c <memset>:
 d8c:	fc          	im -4
 d8d:	3d          	pushspadd
 d8e:	0d          	popsp
 d8f:	76          	loadsp 24
 d90:	79          	loadsp 36

00000d91 <.LM2>:
 d91:	71          	loadsp 4

00000d92 <.LM3>:
 d92:	02          	pushsp
 d93:	8c          	im 12
 d94:	05          	add
 d95:	9f          	im 31
 d96:	05          	add
 d97:	33          	loadb
 d98:	57          	storesp 28
 d99:	55          	storesp 20
 d9a:	53          	storesp 12
 d9b:	55          	storesp 20

00000d9c <.LM4>:
 d9c:	83          	im 3
 d9d:	72          	loadsp 8
 d9e:	27          	ulessthanorequal
 d9f:	8a          	im 10
 da0:	38          	neqbranch
 da1:	74          	loadsp 16
 da2:	83          	im 3
 da3:	06          	and
 da4:	51          	storesp 4
 da5:	70          	loadsp 0
 da6:	80          	im 0
 da7:	2e          	eq
 da8:	a2          	im 34
 da9:	38          	neqbranch

00000daa <.L2>:
 daa:	ff          	im -1
 dab:	12          	addsp 8
 dac:	52          	storesp 8
 dad:	71          	loadsp 4
 dae:	ff          	im -1
 daf:	2e          	eq
 db0:	93          	im 19
 db1:	38          	neqbranch

00000db2 <.L27>:
 db2:	73          	loadsp 12
 db3:	73          	loadsp 12
 db4:	70          	loadsp 0
 db5:	81          	im 1
 db6:	05          	add
 db7:	55          	storesp 20
 db8:	34          	storeb
 db9:	ff          	im -1
 dba:	12          	addsp 8
 dbb:	52          	storesp 8
 dbc:	71          	loadsp 4
 dbd:	ff          	im -1
 dbe:	2e          	eq
 dbf:	09          	not
 dc0:	81          	im 1
 dc1:	06          	and
 dc2:	ef          	im -17
 dc3:	38          	neqbranch

00000dc4 <.L23>:
 dc4:	74          	loadsp 16
 dc5:	88          	im 8
 dc6:	0c          	store
 dc7:	86          	im 6
 dc8:	3d          	pushspadd
 dc9:	0d          	popsp
 dca:	04          	poppc

00000dcb <.L26>:
 dcb:	74          	loadsp 16

00000dcc <.LM8>:
 dcc:	74          	loadsp 16
 dcd:	88          	im 8
 dce:	2b          	ashiftleft
 dcf:	75          	loadsp 20
 dd0:	07          	or

00000dd1 <.LM9>:
 dd1:	70          	loadsp 0
 dd2:	71          	loadsp 4
 dd3:	90          	im 16
 dd4:	2b          	ashiftleft
 dd5:	07          	or
 dd6:	51          	storesp 4
 dd7:	54          	storesp 16
 dd8:	51          	storesp 4

00000dd9 <.LM10>:
 dd9:	8f          	im 15
 dda:	72          	loadsp 8
 ddb:	27          	ulessthanorequal
 ddc:	a5          	im 37
 ddd:	38          	neqbranch

00000dde <.L28>:
 dde:	72          	loadsp 8
 ddf:	71          	loadsp 4
 de0:	70          	loadsp 0
 de1:	84          	im 4
 de2:	05          	add
 de3:	53          	storesp 12
 de4:	0c          	store

00000de5 <.LM12>:
 de5:	72          	loadsp 8
 de6:	71          	loadsp 4
 de7:	70          	loadsp 0
 de8:	84          	im 4
 de9:	05          	add
 dea:	53          	storesp 12
 deb:	0c          	store

00000dec <.LM13>:
 dec:	72          	loadsp 8
 ded:	71          	loadsp 4
 dee:	70          	loadsp 0
 def:	84          	im 4
 df0:	05          	add
 df1:	53          	storesp 12
 df2:	0c          	store

00000df3 <.LM14>:
 df3:	72          	loadsp 8
 df4:	71          	loadsp 4
 df5:	70          	loadsp 0
 df6:	84          	im 4
 df7:	05          	add
 df8:	53          	storesp 12
 df9:	0c          	store

00000dfa <.LM15>:
 dfa:	f0          	im -16
 dfb:	12          	addsp 8
 dfc:	52          	storesp 8
 dfd:	71          	loadsp 4
 dfe:	8f          	im 15
 dff:	26          	ulessthan
 e00:	dd          	im -35
 e01:	38          	neqbranch

00000e02 <.L19>:
 e02:	83          	im 3
 e03:	72          	loadsp 8
 e04:	27          	ulessthanorequal
 e05:	90          	im 16
 e06:	38          	neqbranch

00000e07 <.L29>:
 e07:	72          	loadsp 8
 e08:	71          	loadsp 4
 e09:	70          	loadsp 0
 e0a:	84          	im 4
 e0b:	05          	add
 e0c:	53          	storesp 12
 e0d:	0c          	store

00000e0e <.LM18>:
 e0e:	fc          	im -4
 e0f:	12          	addsp 8
 e10:	52          	storesp 8
 e11:	71          	loadsp 4
 e12:	83          	im 3
 e13:	26          	ulessthan
 e14:	f2          	im -14
 e15:	38          	neqbranch

00000e16 <.L21>:
 e16:	70          	loadsp 0
 e17:	53          	storesp 12
 e18:	ff          	im -1
 e19:	90          	im 16
 e1a:	39          	poppcrel

00000e1b <strcmp>:
 e1b:	fb          	im -5
 e1c:	3d          	pushspadd
 e1d:	0d          	popsp
 e1e:	77          	loadsp 28
 e1f:	79          	loadsp 36

00000e20 <.LM2>:
 e20:	70          	loadsp 0
 e21:	72          	loadsp 8
 e22:	07          	or
 e23:	83          	im 3
 e24:	06          	and
 e25:	53          	storesp 12
 e26:	54          	storesp 16
 e27:	52          	storesp 8
 e28:	70          	loadsp 0
 e29:	93          	im 19
 e2a:	38          	neqbranch

00000e2b <.LM3>:
 e2b:	71          	loadsp 4

00000e2c <.LM4>:
 e2c:	73          	loadsp 12

00000e2d <.LM5>:
 e2d:	73          	loadsp 12
 e2e:	08          	load
 e2f:	54          	storesp 16
 e30:	56          	storesp 24
 e31:	54          	storesp 16
 e32:	71          	loadsp 4
 e33:	73          	loadsp 12
 e34:	08          	load
 e35:	2e          	eq
 e36:	80          	im 0
 e37:	c4          	im -60
 e38:	38          	neqbranch

00000e39 <.LM6>:
 e39:	73          	loadsp 12

00000e3a <.LM7>:
 e3a:	75          	loadsp 20
 e3b:	54          	storesp 16
 e3c:	52          	storesp 8

00000e3d <.L2>:
 e3d:	71          	loadsp 4
 e3e:	33          	loadb
 e3f:	70          	loadsp 0
 e40:	81          	im 1
 e41:	ff          	im -1
 e42:	06          	and
 e43:	52          	storesp 8
 e44:	54          	storesp 16
 e45:	70          	loadsp 0
 e46:	80          	im 0
 e47:	2e          	eq
 e48:	9d          	im 29
 e49:	38          	neqbranch

00000e4a <.L18>:
 e4a:	72          	loadsp 8
 e4b:	33          	loadb
 e4c:	55          	storesp 20
 e4d:	70          	loadsp 0
 e4e:	75          	loadsp 20
 e4f:	2e          	eq
 e50:	09          	not
 e51:	81          	im 1
 e52:	06          	and
 e53:	95          	im 21
 e54:	38          	neqbranch

00000e55 <.LM9>:
 e55:	81          	im 1
 e56:	12          	addsp 8

00000e57 <.LM10>:
 e57:	81          	im 1
 e58:	14          	addsp 16
 e59:	71          	loadsp 4
 e5a:	33          	loadb
 e5b:	70          	loadsp 0
 e5c:	81          	im 1
 e5d:	ff          	im -1
 e5e:	06          	and
 e5f:	54          	storesp 16
 e60:	56          	storesp 24
 e61:	54          	storesp 16
 e62:	52          	storesp 8
 e63:	70          	loadsp 0
 e64:	e5          	im -27
 e65:	38          	neqbranch

00000e66 <.L14>:
 e66:	72          	loadsp 8
 e67:	33          	loadb
 e68:	55          	storesp 20

00000e69 <.L8>:
 e69:	73          	loadsp 12
 e6a:	81          	im 1
 e6b:	ff          	im -1
 e6c:	06          	and
 e6d:	75          	loadsp 20
 e6e:	81          	im 1
 e6f:	ff          	im -1
 e70:	06          	and
 e71:	71          	loadsp 4
 e72:	71          	loadsp 4
 e73:	31          	sub

00000e74 <.LM12>:
 e74:	88          	im 8
 e75:	0c          	store
 e76:	52          	storesp 8
 e77:	52          	storesp 8
 e78:	87          	im 7
 e79:	3d          	pushspadd
 e7a:	0d          	popsp
 e7b:	04          	poppc

00000e7c <.L6>:
 e7c:	71          	loadsp 4
 e7d:	09          	not
 e7e:	70          	loadsp 0
 e7f:	f7          	im -9
 e80:	fb          	im -5
 e81:	fd          	im -3
 e82:	ff          	im -1
 e83:	14          	addsp 16
 e84:	06          	and
 e85:	70          	loadsp 0
 e86:	f8          	im -8
 e87:	84          	im 4
 e88:	82          	im 2
 e89:	81          	im 1
 e8a:	80          	im 0
 e8b:	06          	and
 e8c:	51          	storesp 4
 e8d:	51          	storesp 4
 e8e:	51          	storesp 4
 e8f:	70          	loadsp 0
 e90:	97          	im 23
 e91:	38          	neqbranch

00000e92 <.LM14>:
 e92:	84          	im 4
 e93:	14          	addsp 16

00000e94 <.LM15>:
 e94:	84          	im 4
 e95:	16          	addsp 24
 e96:	71          	loadsp 4
 e97:	08          	load
 e98:	54          	storesp 16
 e99:	56          	storesp 24
 e9a:	54          	storesp 16
 e9b:	71          	loadsp 4
 e9c:	75          	loadsp 20
 e9d:	08          	load
 e9e:	2e          	eq
 e9f:	dc          	im -36
 ea0:	38          	neqbranch

00000ea1 <.LM16>:
 ea1:	73          	loadsp 12

00000ea2 <.LM17>:
 ea2:	75          	loadsp 20
 ea3:	54          	storesp 16
 ea4:	52          	storesp 8
 ea5:	ff          	im -1
 ea6:	96          	im 22
 ea7:	39          	poppcrel

00000ea8 <.L15>:
 ea8:	80          	im 0

00000ea9 <.LM19>:
 ea9:	0b          	nop
 eaa:	88          	im 8
 eab:	0c          	store
 eac:	87          	im 7
 ead:	3d          	pushspadd
 eae:	0d          	popsp
 eaf:	04          	poppc

00000eb0 <__do_global_ctors_aux>:
 eb0:	ff          	im -1
 eb1:	3d          	pushspadd
 eb2:	0d          	popsp
 eb3:	9e          	im 30
 eb4:	cc          	im -52
 eb5:	0b          	nop
 eb6:	fc          	im -4
 eb7:	05          	add
 eb8:	70          	loadsp 0
 eb9:	08          	load
 eba:	52          	storesp 8
 ebb:	52          	storesp 8
 ebc:	70          	loadsp 0
 ebd:	ff          	im -1
 ebe:	2e          	eq
 ebf:	91          	im 17
 ec0:	38          	neqbranch

00000ec1 <.L10>:
 ec1:	70          	loadsp 0
 ec2:	2d          	call
 ec3:	fc          	im -4
 ec4:	12          	addsp 8
 ec5:	70          	loadsp 0
 ec6:	08          	load
 ec7:	52          	storesp 8
 ec8:	52          	storesp 8
 ec9:	70          	loadsp 0
 eca:	ff          	im -1
 ecb:	2e          	eq
 ecc:	09          	not
 ecd:	81          	im 1
 ece:	06          	and
 ecf:	f1          	im -15
 ed0:	38          	neqbranch

00000ed1 <.L7>:
 ed1:	83          	im 3
 ed2:	3d          	pushspadd
 ed3:	0d          	popsp
 ed4:	04          	poppc

00000ed5 <call___do_global_ctors_aux>:
 ed5:	04          	poppc
Disassembly of section .fini:

00000ed6 <_fini>:
 ed6:	eb          	im -21
 ed7:	c7          	im -57
 ed8:	3f          	callpcrel
 ed9:	04          	poppc
Disassembly of section .boots:

00001000 <ivector>:
    1000:	00          	breakpoint
    1001:	00          	breakpoint
	...

00001004 <bootloaderdata>:
    1004:	00          	breakpoint
    1005:	00          	breakpoint
	...

00001008 <__sketch_start>:
    1008:	0b          	nop
    1009:	00          	breakpoint
	...
Disassembly of section .vectors:

00000000 <_memreg-0x8>:
	...

00000008 <_memreg>:
	...
